Archive member included because of file (symbol)

archival/lib.a(ar.o)          applets/built-in.o (ar_main)
archival/lib.a(bbunzip.o)     applets/built-in.o (bunzip2_main)
archival/lib.a(cpio.o)        applets/built-in.o (cpio_main)
archival/lib.a(gzip.o)        applets/built-in.o (gzip_main)
archival/lib.a(rpm.o)         applets/built-in.o (rpm_main)
archival/lib.a(rpm2cpio.o)    applets/built-in.o (rpm2cpio_main)
archival/lib.a(tar.o)         applets/built-in.o (tar_main)
archival/lib.a(unzip.o)       applets/built-in.o (unzip_main)
archival/libunarchive/lib.a(check_header_gzip.o)
                              archival/lib.a(bbunzip.o) (check_header_gzip_or_die)
archival/libunarchive/lib.a(data_extract_all.o)
                              archival/lib.a(ar.o) (data_extract_all)
archival/libunarchive/lib.a(data_extract_to_stdout.o)
                              archival/lib.a(ar.o) (data_extract_to_stdout)
archival/libunarchive/lib.a(data_skip.o)
                              archival/libunarchive/lib.a(data_extract_all.o) (data_skip)
archival/libunarchive/lib.a(decompress_bunzip2.o)
                              applets/built-in.o (read_bunzip)
archival/libunarchive/lib.a(decompress_uncompress.o)
                              archival/lib.a(bbunzip.o) (uncompress)
archival/libunarchive/lib.a(decompress_unlzma.o)
                              archival/lib.a(bbunzip.o) (unpack_lzma_stream)
archival/libunarchive/lib.a(decompress_unzip.o)
                              archival/lib.a(unzip.o) (inflate_unzip)
archival/libunarchive/lib.a(filter_accept_list.o)
                              archival/lib.a(ar.o) (filter_accept_list)
archival/libunarchive/lib.a(filter_accept_reject_list.o)
                              archival/lib.a(tar.o) (filter_accept_reject_list)
archival/libunarchive/lib.a(find_list_entry.o)
                              archival/lib.a(tar.o) (find_list_entry)
archival/libunarchive/lib.a(get_header_ar.o)
                              archival/lib.a(ar.o) (get_header_ar)
archival/libunarchive/lib.a(get_header_cpio.o)
                              archival/lib.a(cpio.o) (get_header_cpio)
archival/libunarchive/lib.a(get_header_tar.o)
                              archival/lib.a(tar.o) (get_header_tar)
archival/libunarchive/lib.a(get_header_tar_bz2.o)
                              archival/lib.a(tar.o) (get_header_tar_bz2)
archival/libunarchive/lib.a(get_header_tar_gz.o)
                              archival/lib.a(tar.o) (get_header_tar_gz)
archival/libunarchive/lib.a(get_header_tar_lzma.o)
                              archival/lib.a(tar.o) (get_header_tar_lzma)
archival/libunarchive/lib.a(header_list.o)
                              archival/lib.a(ar.o) (header_list)
archival/libunarchive/lib.a(header_verbose_list.o)
                              archival/lib.a(cpio.o) (header_verbose_list)
archival/libunarchive/lib.a(init_handle.o)
                              archival/lib.a(ar.o) (init_handle)
archival/libunarchive/lib.a(open_transformer.o)
                              archival/lib.a(rpm.o) (open_transformer)
archival/libunarchive/lib.a(seek_by_jump.o)
                              archival/lib.a(cpio.o) (seek_by_jump)
archival/libunarchive/lib.a(seek_by_read.o)
                              archival/lib.a(cpio.o) (seek_by_read)
archival/libunarchive/lib.a(archive_xread_all_eof.o)
                              archival/libunarchive/lib.a(get_header_cpio.o) (archive_xread_all_eof)
archival/libunarchive/lib.a(data_align.o)
                              archival/libunarchive/lib.a(get_header_cpio.o) (data_align)
archival/libunarchive/lib.a(filter_accept_all.o)
                              archival/libunarchive/lib.a(init_handle.o) (filter_accept_all)
archival/libunarchive/lib.a(header_skip.o)
                              archival/libunarchive/lib.a(init_handle.o) (header_skip)
console-tools/lib.a(chvt.o)   applets/built-in.o (chvt_main)
console-tools/lib.a(clear.o)  applets/built-in.o (clear_main)
console-tools/lib.a(deallocvt.o)
                              applets/built-in.o (deallocvt_main)
console-tools/lib.a(dumpkmap.o)
                              applets/built-in.o (dumpkmap_main)
console-tools/lib.a(loadfont.o)
                              applets/built-in.o (loadfont_main)
console-tools/lib.a(loadkmap.o)
                              applets/built-in.o (loadkmap_main)
console-tools/lib.a(openvt.o)
                              applets/built-in.o (openvt_main)
console-tools/lib.a(reset.o)  applets/built-in.o (reset_main)
console-tools/lib.a(resize.o)
                              applets/built-in.o (resize_main)
console-tools/lib.a(setconsole.o)
                              applets/built-in.o (setconsole_main)
console-tools/lib.a(setkeycodes.o)
                              applets/built-in.o (setkeycodes_main)
console-tools/lib.a(setlogcons.o)
                              applets/built-in.o (setlogcons_main)
coreutils/lib.a(basename.o)   applets/built-in.o (basename_main)
coreutils/lib.a(cal.o)        applets/built-in.o (cal_main)
coreutils/lib.a(cat.o)        applets/built-in.o (cat_main)
coreutils/lib.a(catv.o)       applets/built-in.o (catv_main)
coreutils/lib.a(chgrp.o)      applets/built-in.o (chgrp_main)
coreutils/lib.a(chmod.o)      applets/built-in.o (chmod_main)
coreutils/lib.a(chown.o)      applets/built-in.o (chown_main)
coreutils/lib.a(chroot.o)     applets/built-in.o (chroot_main)
coreutils/lib.a(cksum.o)      applets/built-in.o (cksum_main)
coreutils/lib.a(comm.o)       applets/built-in.o (comm_main)
coreutils/lib.a(cp.o)         applets/built-in.o (cp_main)
coreutils/lib.a(cut.o)        applets/built-in.o (cut_main)
coreutils/lib.a(date.o)       applets/built-in.o (date_main)
coreutils/lib.a(dd.o)         applets/built-in.o (dd_main)
coreutils/lib.a(df.o)         applets/built-in.o (df_main)
coreutils/lib.a(dirname.o)    applets/built-in.o (dirname_main)
coreutils/lib.a(dos2unix.o)   applets/built-in.o (dos2unix_main)
coreutils/lib.a(du.o)         applets/built-in.o (du_main)
coreutils/lib.a(echo.o)       applets/built-in.o (echo_main)
coreutils/lib.a(env.o)        applets/built-in.o (env_main)
coreutils/lib.a(expand.o)     applets/built-in.o (expand_main)
coreutils/lib.a(expr.o)       applets/built-in.o (expr_main)
coreutils/lib.a(false.o)      applets/built-in.o (false_main)
coreutils/lib.a(fold.o)       applets/built-in.o (fold_main)
coreutils/lib.a(head.o)       applets/built-in.o (head_main)
coreutils/lib.a(hostid.o)     applets/built-in.o (hostid_main)
coreutils/lib.a(id.o)         applets/built-in.o (id_main)
coreutils/lib.a(install.o)    applets/built-in.o (install_main)
coreutils/lib.a(length.o)     applets/built-in.o (length_main)
coreutils/lib.a(ln.o)         applets/built-in.o (ln_main)
coreutils/lib.a(logname.o)    applets/built-in.o (logname_main)
coreutils/lib.a(ls.o)         applets/built-in.o (ls_main)
coreutils/lib.a(md5_sha1_sum.o)
                              applets/built-in.o (md5_sha1_sum_main)
coreutils/lib.a(mkdir.o)      applets/built-in.o (mkdir_main)
coreutils/lib.a(mkfifo.o)     applets/built-in.o (mkfifo_main)
coreutils/lib.a(mknod.o)      applets/built-in.o (mknod_main)
coreutils/lib.a(mv.o)         applets/built-in.o (mv_main)
coreutils/lib.a(nice.o)       applets/built-in.o (nice_main)
coreutils/lib.a(nohup.o)      applets/built-in.o (nohup_main)
coreutils/lib.a(od.o)         applets/built-in.o (od_main)
coreutils/lib.a(printenv.o)   applets/built-in.o (printenv_main)
coreutils/lib.a(printf.o)     applets/built-in.o (printf_main)
coreutils/lib.a(pwd.o)        applets/built-in.o (pwd_main)
coreutils/lib.a(readlink.o)   applets/built-in.o (readlink_main)
coreutils/lib.a(realpath.o)   applets/built-in.o (realpath_main)
coreutils/lib.a(rm.o)         applets/built-in.o (rm_main)
coreutils/lib.a(rmdir.o)      applets/built-in.o (rmdir_main)
coreutils/lib.a(seq.o)        applets/built-in.o (seq_main)
coreutils/lib.a(sleep.o)      applets/built-in.o (sleep_main)
coreutils/lib.a(sort.o)       applets/built-in.o (sort_main)
coreutils/lib.a(split.o)      applets/built-in.o (split_main)
coreutils/lib.a(stat.o)       applets/built-in.o (stat_main)
coreutils/lib.a(stty.o)       applets/built-in.o (stty_main)
coreutils/lib.a(sum.o)        applets/built-in.o (sum_main)
coreutils/lib.a(sync.o)       applets/built-in.o (sync_main)
coreutils/lib.a(tail.o)       applets/built-in.o (tail_main)
coreutils/lib.a(tee.o)        applets/built-in.o (tee_main)
coreutils/lib.a(test.o)       applets/built-in.o (test_main)
coreutils/lib.a(touch.o)      applets/built-in.o (touch_main)
coreutils/lib.a(tr.o)         applets/built-in.o (tr_main)
coreutils/lib.a(true.o)       applets/built-in.o (true_main)
coreutils/lib.a(tty.o)        applets/built-in.o (tty_main)
coreutils/lib.a(uname.o)      applets/built-in.o (uname_main)
coreutils/lib.a(uniq.o)       applets/built-in.o (uniq_main)
coreutils/lib.a(usleep.o)     applets/built-in.o (usleep_main)
coreutils/lib.a(uudecode.o)   applets/built-in.o (uudecode_main)
coreutils/lib.a(uuencode.o)   applets/built-in.o (uuencode_main)
coreutils/lib.a(wc.o)         applets/built-in.o (wc_main)
coreutils/lib.a(who.o)        applets/built-in.o (who_main)
coreutils/lib.a(whoami.o)     applets/built-in.o (whoami_main)
coreutils/lib.a(yes.o)        applets/built-in.o (yes_main)
coreutils/libcoreutils/lib.a(cp_mv_stat.o)
                              coreutils/lib.a(cp.o) (cp_mv_stat2)
coreutils/libcoreutils/lib.a(getopt_mk_fifo_nod.o)
                              coreutils/lib.a(mkfifo.o) (getopt_mk_fifo_nod)
debianutils/lib.a(mktemp.o)   applets/built-in.o (mktemp_main)
debianutils/lib.a(pipe_progress.o)
                              applets/built-in.o (pipe_progress_main)
debianutils/lib.a(run_parts.o)
                              applets/built-in.o (run_parts_main)
debianutils/lib.a(start_stop_daemon.o)
                              applets/built-in.o (start_stop_daemon_main)
debianutils/lib.a(which.o)    applets/built-in.o (which_main)
e2fsprogs/lib.a(chattr.o)     applets/built-in.o (chattr_main)
e2fsprogs/lib.a(e2fs_lib.o)   e2fsprogs/lib.a(chattr.o) (iterate_on_dir)
e2fsprogs/lib.a(fsck.o)       applets/built-in.o (fsck_main)
e2fsprogs/lib.a(lsattr.o)     applets/built-in.o (lsattr_main)
editors/lib.a(awk.o)          applets/built-in.o (awk_main)
editors/lib.a(cmp.o)          applets/built-in.o (cmp_main)
editors/lib.a(diff.o)         applets/built-in.o (diff_main)
editors/lib.a(ed.o)           applets/built-in.o (ed_main)
editors/lib.a(patch.o)        applets/built-in.o (patch_main)
editors/lib.a(sed.o)          applets/built-in.o (sed_main)
editors/lib.a(vi.o)           applets/built-in.o (vi_main)
findutils/lib.a(find.o)       applets/built-in.o (find_main)
findutils/lib.a(grep.o)       applets/built-in.o (grep_main)
findutils/lib.a(xargs.o)      applets/built-in.o (xargs_main)
init/lib.a(halt.o)            applets/built-in.o (halt_main)
init/lib.a(init.o)            applets/built-in.o (init_main)
init/lib.a(mesg.o)            applets/built-in.o (mesg_main)
ipsvd/lib.a(tcpudp.o)         applets/built-in.o (tcpudpsvd_main)
ipsvd/lib.a(ipsvd_perhost.o)  ipsvd/lib.a(tcpudp.o) (ipsvd_perhost_init)
libbb/lib.a(ask_confirmation.o)
                              coreutils/lib.a(mv.o) (bb_ask_confirmation)
libbb/lib.a(bb_basename.o)    applets/built-in.o (bb_basename)
libbb/lib.a(bb_pwd.o)         coreutils/lib.a(id.o) (bb_getpwuid)
libbb/lib.a(bb_strtonum.o)    applets/built-in.o (bb_strtoul)
libbb/lib.a(chomp.o)          archival/lib.a(unzip.o) (chomp)
libbb/lib.a(compare_string_array.o)
                              coreutils/lib.a(dd.o) (index_in_strings)
libbb/lib.a(concat_path_file.o)
                              applets/built-in.o (concat_path_file)
libbb/lib.a(concat_subpath_file.o)
                              coreutils/lib.a(du.o) (concat_subpath_file)
libbb/lib.a(copy_file.o)      archival/lib.a(rpm.o) (copy_file)
libbb/lib.a(copyfd.o)         archival/lib.a(tar.o) (bb_copyfd_exact_size)
libbb/lib.a(crc32.o)          archival/lib.a(gzip.o) (crc32_filltable)
libbb/lib.a(default_error_retval.o)
                              applets/built-in.o (xfunc_error_retval)
libbb/lib.a(device_open.o)    init/lib.a(init.o) (device_open)
libbb/lib.a(dump.o)           coreutils/lib.a(od.o) (bb_dump_length)
libbb/lib.a(error_msg.o)      archival/lib.a(bbunzip.o) (bb_error_msg)
libbb/lib.a(error_msg_and_die.o)
                              applets/built-in.o (xfunc_die)
libbb/lib.a(execable.o)       debianutils/lib.a(which.o) (execable_file)
libbb/lib.a(fclose_nonstdin.o)
                              coreutils/lib.a(expand.o) (fclose_if_not_stdin)
libbb/lib.a(fflush_stdout_and_exit.o)
                              coreutils/lib.a(cal.o) (fflush_stdout_and_exit)
libbb/lib.a(find_mount_point.o)
                              coreutils/lib.a(df.o) (find_mount_point)
libbb/lib.a(find_pid_by_name.o)
                              init/lib.a(halt.o) (find_pid_by_name)
libbb/lib.a(find_root_device.o)
                              coreutils/lib.a(df.o) (find_block_device)
libbb/lib.a(full_write.o)     archival/libunarchive/lib.a(decompress_uncompress.o) (full_write)
libbb/lib.a(get_console.o)    console-tools/lib.a(chvt.o) (get_console_fd)
libbb/lib.a(get_last_path_component.o)
                              coreutils/lib.a(basename.o) (bb_get_last_path_component)
libbb/lib.a(get_line_from_file.o)
                              coreutils/lib.a(sort.o) (bb_get_chunk_from_file)
libbb/lib.a(getopt32.o)       archival/lib.a(ar.o) (getopt32)
libbb/lib.a(human_readable.o)
                              coreutils/lib.a(df.o) (make_human_readable_str)
libbb/lib.a(info_msg.o)       e2fsprogs/lib.a(fsck.o) (bb_info_msg)
libbb/lib.a(inode_hash.o)     coreutils/lib.a(du.o) (is_in_ino_dev_hashtable)
libbb/lib.a(isdirectory.o)    coreutils/lib.a(ln.o) (is_directory)
libbb/lib.a(last_char_is.o)   archival/lib.a(tar.o) (last_char_is)
libbb/lib.a(llist.o)          archival/lib.a(ar.o) (llist_add_to)
libbb/lib.a(make_directory.o)
                              archival/lib.a(unzip.o) (bb_make_directory)
libbb/lib.a(makedev.o)        archival/libunarchive/lib.a(get_header_cpio.o) (bb_makedev)
libbb/lib.a(md5.o)            coreutils/lib.a(md5_sha1_sum.o) (md5_begin)
libbb/lib.a(messages.o)       init/lib.a(init.o) (bb_PATH_root_path)
libbb/lib.a(mode_string.o)    archival/lib.a(ar.o) (bb_mode_string)
libbb/lib.a(mtab_file.o)      coreutils/lib.a(df.o) (bb_path_mtab_file)
libbb/lib.a(parse_mode.o)     coreutils/lib.a(chmod.o) (bb_parse_mode)
libbb/lib.a(perror_msg.o)     applets/built-in.o (bb_perror_msg)
libbb/lib.a(perror_msg_and_die.o)
                              applets/built-in.o (bb_perror_msg_and_die)
libbb/lib.a(perror_nomsg.o)   coreutils/lib.a(dos2unix.o) (bb_perror_nomsg)
libbb/lib.a(perror_nomsg_and_die.o)
                              coreutils/lib.a(dos2unix.o) (bb_perror_nomsg_and_die)
libbb/lib.a(pidfile.o)        debianutils/lib.a(start_stop_daemon.o) (write_pidfile)
libbb/lib.a(process_escape_sequence.o)
                              coreutils/lib.a(echo.o) (bb_process_escape_sequence)
libbb/lib.a(procps.o)         archival/lib.a(tar.o) (get_cached_username)
libbb/lib.a(read.o)           archival/lib.a(gzip.o) (safe_read)
libbb/lib.a(recursive_action.o)
                              archival/lib.a(tar.o) (recursive_action)
libbb/lib.a(remove_file.o)    archival/lib.a(rpm.o) (remove_file)
libbb/lib.a(safe_strncpy.o)   archival/lib.a(tar.o) (safe_strncpy)
libbb/lib.a(safe_write.o)     archival/libunarchive/lib.a(decompress_bunzip2.o) (safe_write)
libbb/lib.a(sha1.o)           coreutils/lib.a(md5_sha1_sum.o) (sha1_begin)
libbb/lib.a(skip_whitespace.o)
                              applets/built-in.o (skip_whitespace)
libbb/lib.a(speed_table.o)    coreutils/lib.a(stty.o) (tty_baud_to_value)
libbb/lib.a(u_signal_names.o)
                              debianutils/lib.a(start_stop_daemon.o) (get_signum)
libbb/lib.a(udp_io.o)         ipsvd/lib.a(tcpudp.o) (socket_want_pktinfo)
libbb/lib.a(uuencode.o)       coreutils/lib.a(uuencode.o) (bb_uuenc_tbl_std)
libbb/lib.a(verror_msg.o)     libbb/lib.a(info_msg.o) (msg_eol)
libbb/lib.a(vfork_daemon_rexec.o)
                              debianutils/lib.a(run_parts.o) (spawn)
libbb/lib.a(warn_ignoring_args.o)
                              coreutils/lib.a(sync.o) (bb_warn_ignoring_args)
libbb/lib.a(wfopen.o)         coreutils/lib.a(cut.o) (fopen_or_warn)
libbb/lib.a(wfopen_input.o)   coreutils/lib.a(cksum.o) (fopen_or_warn_stdin)
libbb/lib.a(xatonum.o)        coreutils/lib.a(dd.o) (xatoull_sfx)
libbb/lib.a(xconnect.o)       ipsvd/lib.a(tcpudp.o) (setsockopt_reuseaddr)
libbb/lib.a(xfuncs.o)         applets/built-in.o (malloc_or_warn)
libbb/lib.a(xgetcwd.o)        coreutils/lib.a(pwd.o) (xrealloc_getcwd_or_warn)
libbb/lib.a(xreadlink.o)      applets/built-in.o (xmalloc_readlink_or_warn)
libbb/lib.a(xregcomp.o)       coreutils/lib.a(expr.o) (xregcomp)
libpwdgrp/lib.a(pwd_grp.o)    coreutils/lib.a(stat.o) (bb_internal_setpwent)
libpwdgrp/lib.a(uidgid_get.o)
                              ipsvd/lib.a(tcpudp.o) (get_uidgid)
loginutils/lib.a(addgroup.o)  applets/built-in.o (addgroup_main)
loginutils/lib.a(adduser.o)   applets/built-in.o (adduser_main)
loginutils/lib.a(chpasswd.o)  applets/built-in.o (chpasswd_main)
loginutils/lib.a(cryptpw.o)   applets/built-in.o (cryptpw_main)
loginutils/lib.a(deluser.o)   applets/built-in.o (deluser_main)
loginutils/lib.a(getty.o)     applets/built-in.o (getty_main)
loginutils/lib.a(login.o)     applets/built-in.o (login_main)
loginutils/lib.a(passwd.o)    applets/built-in.o (passwd_main)
loginutils/lib.a(su.o)        applets/built-in.o (su_main)
loginutils/lib.a(sulogin.o)   applets/built-in.o (sulogin_main)
loginutils/lib.a(vlock.o)     applets/built-in.o (vlock_main)
miscutils/lib.a(adjtimex.o)   applets/built-in.o (adjtimex_main)
miscutils/lib.a(chrt.o)       applets/built-in.o (chrt_main)
miscutils/lib.a(crond.o)      applets/built-in.o (crond_main)
miscutils/lib.a(crontab.o)    applets/built-in.o (crontab_main)
miscutils/lib.a(dc.o)         applets/built-in.o (dc_main)
miscutils/lib.a(eject.o)      applets/built-in.o (eject_main)
miscutils/lib.a(hdparm.o)     applets/built-in.o (hdparm_main)
miscutils/lib.a(last.o)       applets/built-in.o (last_main)
miscutils/lib.a(less.o)       applets/built-in.o (less_main)
miscutils/lib.a(makedevs.o)   applets/built-in.o (makedevs_main)
miscutils/lib.a(mountpoint.o)
                              applets/built-in.o (mountpoint_main)
miscutils/lib.a(mt.o)         applets/built-in.o (mt_main)
miscutils/lib.a(raidautorun.o)
                              applets/built-in.o (raidautorun_main)
miscutils/lib.a(readahead.o)  applets/built-in.o (readahead_main)
miscutils/lib.a(runlevel.o)   applets/built-in.o (runlevel_main)
miscutils/lib.a(rx.o)         applets/built-in.o (rx_main)
miscutils/lib.a(setsid.o)     applets/built-in.o (setsid_main)
miscutils/lib.a(strings.o)    applets/built-in.o (strings_main)
miscutils/lib.a(taskset.o)    applets/built-in.o (taskset_main)
miscutils/lib.a(time.o)       applets/built-in.o (time_main)
miscutils/lib.a(ttysize.o)    applets/built-in.o (ttysize_main)
miscutils/lib.a(watchdog.o)   applets/built-in.o (watchdog_main)
modutils/lib.a(insmod.o)      applets/built-in.o (insmod_main)
modutils/lib.a(lsmod.o)       applets/built-in.o (lsmod_main)
modutils/lib.a(modprobe.o)    applets/built-in.o (modprobe_main)
modutils/lib.a(rmmod.o)       applets/built-in.o (rmmod_main)
networking/lib.a(arp.o)       applets/built-in.o (arp_main)
networking/lib.a(arping.o)    applets/built-in.o (arping_main)
networking/lib.a(dnsd.o)      applets/built-in.o (dnsd_main)
networking/lib.a(ether-wake.o)
                              applets/built-in.o (ether_wake_main)
networking/lib.a(ftpgetput.o)
                              applets/built-in.o (ftpgetput_main)
networking/lib.a(hostname.o)  applets/built-in.o (hostname_main)
networking/lib.a(httpd.o)     applets/built-in.o (httpd_main)
networking/lib.a(ifconfig.o)  applets/built-in.o (ifconfig_main)
networking/lib.a(ifupdown.o)  applets/built-in.o (ifupdown_main)
networking/lib.a(inetd.o)     applets/built-in.o (inetd_main)
networking/lib.a(interface.o)
                              networking/lib.a(arp.o) (get_aftype)
networking/lib.a(ip.o)        applets/built-in.o (ipaddr_main)
networking/lib.a(ipcalc.o)    applets/built-in.o (ipcalc_main)
networking/lib.a(isrv_identd.o)
                              applets/built-in.o (fakeidentd_main)
networking/lib.a(nameif.o)    applets/built-in.o (nameif_main)
networking/lib.a(nc.o)        applets/built-in.o (nc_main)
networking/lib.a(netstat.o)   applets/built-in.o (netstat_main)
networking/lib.a(nslookup.o)  applets/built-in.o (nslookup_main)
networking/lib.a(ping.o)      applets/built-in.o (ping_main)
networking/lib.a(pscan.o)     applets/built-in.o (pscan_main)
networking/lib.a(route.o)     networking/lib.a(netstat.o) (bb_displayroutes)
networking/lib.a(slattach.o)  applets/built-in.o (slattach_main)
networking/lib.a(telnet.o)    applets/built-in.o (telnet_main)
networking/lib.a(telnetd.o)   applets/built-in.o (telnetd_main)
networking/lib.a(tftp.o)      applets/built-in.o (tftp_main)
networking/lib.a(traceroute.o)
                              applets/built-in.o (traceroute_main)
networking/lib.a(vconfig.o)   applets/built-in.o (vconfig_main)
networking/lib.a(wget.o)      applets/built-in.o (wget_main)
networking/lib.a(zcip.o)      applets/built-in.o (zcip_main)
networking/lib.a(isrv.o)      networking/lib.a(isrv_identd.o) (isrv_want_rd)
networking/libiproute/lib.a(ip_parse_common_args.o)
                              networking/lib.a(ip.o) (ip_parse_common_args)
networking/libiproute/lib.a(ipaddress.o)
                              networking/lib.a(ip.o) (do_ipaddr)
networking/libiproute/lib.a(iplink.o)
                              networking/lib.a(ip.o) (do_iplink)
networking/libiproute/lib.a(iproute.o)
                              networking/lib.a(ip.o) (do_iproute)
networking/libiproute/lib.a(iprule.o)
                              networking/lib.a(ip.o) (do_iprule)
networking/libiproute/lib.a(iptunnel.o)
                              networking/lib.a(ip.o) (do_iptunnel)
networking/libiproute/lib.a(libnetlink.o)
                              networking/libiproute/lib.a(ipaddress.o) (xrtnl_open)
networking/libiproute/lib.a(ll_addr.o)
                              networking/libiproute/lib.a(ipaddress.o) (ll_addr_n2a)
networking/libiproute/lib.a(ll_map.o)
                              networking/libiproute/lib.a(ipaddress.o) (ll_remember_index)
networking/libiproute/lib.a(ll_types.o)
                              networking/libiproute/lib.a(ipaddress.o) (ll_type_n2a)
networking/libiproute/lib.a(rt_names.o)
                              networking/libiproute/lib.a(iproute.o) (rtnl_rtprot_a2n)
networking/libiproute/lib.a(rtm_map.o)
                              networking/libiproute/lib.a(iproute.o) (rtnl_rtntype_n2a)
networking/libiproute/lib.a(utils.o)
                              networking/libiproute/lib.a(iplink.o) (get_integer)
networking/udhcp/lib.a(dhcpc.o)
                              applets/built-in.o (udhcpc_main)
networking/udhcp/lib.a(dhcpd.o)
                              applets/built-in.o (udhcpd_main)
networking/udhcp/lib.a(dhcprelay.o)
                              applets/built-in.o (dhcprelay_main)
networking/udhcp/lib.a(dumpleases.o)
                              applets/built-in.o (dumpleases_main)
networking/udhcp/lib.a(files.o)
                              networking/udhcp/lib.a(dhcpd.o) (find_option)
networking/udhcp/lib.a(leases.o)
                              networking/udhcp/lib.a(files.o) (add_lease)
networking/udhcp/lib.a(options.o)
                              networking/udhcp/lib.a(files.o) (udhcp_option_lengths)
networking/udhcp/lib.a(packet.o)
                              networking/udhcp/lib.a(dhcpc.o) (udhcp_get_packet)
networking/udhcp/lib.a(script.o)
                              networking/udhcp/lib.a(dhcpc.o) (udhcp_run_script)
networking/udhcp/lib.a(serverpacket.o)
                              networking/udhcp/lib.a(dhcpd.o) (sendOffer)
networking/udhcp/lib.a(signalpipe.o)
                              networking/udhcp/lib.a(dhcpc.o) (udhcp_sp_setup)
networking/udhcp/lib.a(socket.o)
                              networking/udhcp/lib.a(dhcpc.o) (udhcp_read_interface)
networking/udhcp/lib.a(static_leases.o)
                              networking/udhcp/lib.a(files.o) (addStaticLease)
networking/udhcp/lib.a(arpping.o)
                              networking/udhcp/lib.a(leases.o) (arpping)
networking/udhcp/lib.a(clientpacket.o)
                              networking/udhcp/lib.a(dhcpc.o) (random_xid)
networking/udhcp/lib.a(clientsocket.o)
                              networking/udhcp/lib.a(dhcpc.o) (raw_socket)
networking/udhcp/lib.a(common.o)
                              networking/udhcp/lib.a(serverpacket.o) (MAC_BCAST_ADDR)
networking/udhcp/lib.a(domain_codec.o)
                              networking/udhcp/lib.a(script.o) (dname_dec)
procps/lib.a(free.o)          applets/built-in.o (free_main)
procps/lib.a(fuser.o)         applets/built-in.o (fuser_main)
procps/lib.a(kill.o)          applets/built-in.o (kill_main)
procps/lib.a(nmeter.o)        applets/built-in.o (nmeter_main)
procps/lib.a(pidof.o)         applets/built-in.o (pidof_main)
procps/lib.a(ps.o)            applets/built-in.o (ps_main)
procps/lib.a(renice.o)        applets/built-in.o (renice_main)
procps/lib.a(sysctl.o)        applets/built-in.o (sysctl_main)
procps/lib.a(top.o)           applets/built-in.o (top_main)
procps/lib.a(uptime.o)        applets/built-in.o (uptime_main)
procps/lib.a(watch.o)         applets/built-in.o (watch_main)
runit/lib.a(chpst.o)          applets/built-in.o (chpst_main)
runit/lib.a(runsv.o)          applets/built-in.o (runsv_main)
runit/lib.a(runsvdir.o)       applets/built-in.o (runsvdir_main)
runit/lib.a(sv.o)             applets/built-in.o (sv_main)
runit/lib.a(svlogd.o)         applets/built-in.o (svlogd_main)
runit/lib.a(runit_lib.o)      runit/lib.a(runsv.o) (coe)
shell/lib.a(ash.o)            applets/built-in.o (ash_main)
sysklogd/lib.a(klogd.o)       applets/built-in.o (klogd_main)
sysklogd/lib.a(logger.o)      applets/built-in.o (logger_main)
sysklogd/lib.a(logread.o)     applets/built-in.o (logread_main)
sysklogd/lib.a(syslogd.o)     sysklogd/lib.a(logger.o) (facilitynames)
util-linux/lib.a(dmesg.o)     applets/built-in.o (dmesg_main)
util-linux/lib.a(fbset.o)     applets/built-in.o (fbset_main)
util-linux/lib.a(fdformat.o)  applets/built-in.o (fdformat_main)
util-linux/lib.a(fdisk.o)     applets/built-in.o (fdisk_main)
util-linux/lib.a(freeramdisk.o)
                              applets/built-in.o (freeramdisk_main)
util-linux/lib.a(fsck_minix.o)
                              applets/built-in.o (fsck_minix_main)
util-linux/lib.a(getopt.o)    applets/built-in.o (getopt_main)
util-linux/lib.a(hexdump.o)   applets/built-in.o (hexdump_main)
util-linux/lib.a(hwclock.o)   applets/built-in.o (hwclock_main)
util-linux/lib.a(ipcrm.o)     applets/built-in.o (ipcrm_main)
util-linux/lib.a(ipcs.o)      applets/built-in.o (ipcs_main)
util-linux/lib.a(losetup.o)   applets/built-in.o (losetup_main)
util-linux/lib.a(mdev.o)      applets/built-in.o (mdev_main)
util-linux/lib.a(mkfs_minix.o)
                              applets/built-in.o (mkfs_minix_main)
util-linux/lib.a(mkswap.o)    applets/built-in.o (mkswap_main)
util-linux/lib.a(more.o)      applets/built-in.o (more_main)
util-linux/lib.a(mount.o)     applets/built-in.o (mount_main)
util-linux/lib.a(pivot_root.o)
                              applets/built-in.o (pivot_root_main)
util-linux/lib.a(rdate.o)     applets/built-in.o (rdate_main)
util-linux/lib.a(readprofile.o)
                              applets/built-in.o (readprofile_main)
util-linux/lib.a(setarch.o)   applets/built-in.o (setarch_main)
util-linux/lib.a(swaponoff.o)
                              applets/built-in.o (swap_on_off_main)
util-linux/lib.a(switch_root.o)
                              applets/built-in.o (switch_root_main)
util-linux/lib.a(umount.o)    applets/built-in.o (umount_main)
libbb/lib.a(bb_askpass.o)     loginutils/lib.a(passwd.o) (bb_askpass)
libbb/lib.a(bb_do_delay.o)    loginutils/lib.a(login.o) (bb_do_delay)
libbb/lib.a(change_identity.o)
                              miscutils/lib.a(crond.o) (change_identity_e2str)
libbb/lib.a(correct_password.o)
                              loginutils/lib.a(login.o) (correct_password)
libbb/lib.a(create_icmp6_socket.o)
                              networking/lib.a(ping.o) (create_icmp6_socket)
libbb/lib.a(create_icmp_socket.o)
                              networking/lib.a(ping.o) (create_icmp_socket)
libbb/lib.a(crypt_make_salt.o)
                              loginutils/lib.a(chpasswd.o) (crypt_make_salt)
libbb/lib.a(herror_msg.o)     util-linux/lib.a(mount.o) (bb_herror_msg)
libbb/lib.a(herror_msg_and_die.o)
                              networking/lib.a(arp.o) (bb_herror_msg_and_die)
libbb/lib.a(inet_common.o)    networking/lib.a(interface.o) (INET_resolve)
libbb/lib.a(kernel_version.o)
                              modutils/lib.a(rmmod.o) (get_linux_version_code)
libbb/lib.a(lineedit.o)       shell/lib.a(ash.o) (read_line_input)
libbb/lib.a(login.o)          loginutils/lib.a(getty.o) (print_login_issue)
libbb/lib.a(loop.o)           util-linux/lib.a(losetup.o) (query_loop)
libbb/lib.a(match_fstype.o)   util-linux/lib.a(mount.o) (match_fstype)
libbb/lib.a(obscure.o)        loginutils/lib.a(passwd.o) (obscure)
libbb/lib.a(pw_encrypt.o)     loginutils/lib.a(chpasswd.o) (pw_encrypt)
libbb/lib.a(restricted_shell.o)
                              loginutils/lib.a(su.o) (restricted_shell)
libbb/lib.a(run_shell.o)      loginutils/lib.a(login.o) (run_shell)
libbb/lib.a(setup_environment.o)
                              loginutils/lib.a(login.o) (setup_environment)
libbb/lib.a(simplify_path.o)  util-linux/lib.a(mount.o) (bb_simplify_path)
libbb/lib.a(str_tolower.o)    networking/lib.a(wget.o) (str_tolower)
libbb/lib.a(time.o)           miscutils/lib.a(time.o) (monotonic_us)
libbb/lib.a(trim.o)           miscutils/lib.a(crond.o) (trim)
libbb/lib.a(update_passwd.o)  loginutils/lib.a(chpasswd.o) (update_passwd)
libbb/lib.a(xgethostbyname.o)
                              networking/lib.a(hostname.o) (xgethostbyname)
/home/zion/gcc_jz2440/arm-linux-gcc-3.4.5-glibc-2.3.6/bin/../lib/gcc/arm-linux/3.4.5/libgcc.a(_udivsi3.oS)
                              archival/libunarchive/lib.a(decompress_unlzma.o) (__udivsi3)
/home/zion/gcc_jz2440/arm-linux-gcc-3.4.5-glibc-2.3.6/bin/../lib/gcc/arm-linux/3.4.5/libgcc.a(_divsi3.oS)
                              archival/libunarchive/lib.a(decompress_unlzma.o) (__divsi3)
/home/zion/gcc_jz2440/arm-linux-gcc-3.4.5-glibc-2.3.6/bin/../lib/gcc/arm-linux/3.4.5/libgcc.a(_umodsi3.oS)
                              archival/lib.a(unzip.o) (__umodsi3)
/home/zion/gcc_jz2440/arm-linux-gcc-3.4.5-glibc-2.3.6/bin/../lib/gcc/arm-linux/3.4.5/libgcc.a(_modsi3.oS)
                              archival/lib.a(rpm.o) (__modsi3)
/home/zion/gcc_jz2440/arm-linux-gcc-3.4.5-glibc-2.3.6/bin/../lib/gcc/arm-linux/3.4.5/libgcc.a(_dvmd_lnx.oS)
                              /home/zion/gcc_jz2440/arm-linux-gcc-3.4.5-glibc-2.3.6/bin/../lib/gcc/arm-linux/3.4.5/libgcc.a(_udivsi3.oS) (__div0)
/home/zion/gcc_jz2440/arm-linux-gcc-3.4.5-glibc-2.3.6/bin/../lib/gcc/arm-linux/3.4.5/libgcc.a(_addsubdf3.oS)
                              editors/lib.a(awk.o) (__floatsidf)
/home/zion/gcc_jz2440/arm-linux-gcc-3.4.5-glibc-2.3.6/bin/../lib/gcc/arm-linux/3.4.5/libgcc.a(_muldivdf3.oS)
                              editors/lib.a(awk.o) (__muldf3)
/home/zion/gcc_jz2440/arm-linux-gcc-3.4.5-glibc-2.3.6/bin/../lib/gcc/arm-linux/3.4.5/libgcc.a(_cmpdf2.oS)
                              coreutils/lib.a(seq.o) (__gtdf2)
/home/zion/gcc_jz2440/arm-linux-gcc-3.4.5-glibc-2.3.6/bin/../lib/gcc/arm-linux/3.4.5/libgcc.a(_fixdfsi.oS)
                              editors/lib.a(awk.o) (__fixdfsi)
/home/zion/gcc_jz2440/arm-linux-gcc-3.4.5-glibc-2.3.6/bin/../lib/gcc/arm-linux/3.4.5/libgcc.a(_fixunsdfsi.oS)
                              editors/lib.a(awk.o) (__fixunsdfsi)
/home/zion/gcc_jz2440/arm-linux-gcc-3.4.5-glibc-2.3.6/bin/../lib/gcc/arm-linux/3.4.5/libgcc.a(_addsubsf3.oS)
                              miscutils/lib.a(hdparm.o) (__floatsisf)
/home/zion/gcc_jz2440/arm-linux-gcc-3.4.5-glibc-2.3.6/bin/../lib/gcc/arm-linux/3.4.5/libgcc.a(_muldivsf3.oS)
                              miscutils/lib.a(hdparm.o) (__mulsf3)
/home/zion/gcc_jz2440/arm-linux-gcc-3.4.5-glibc-2.3.6/bin/../lib/gcc/arm-linux/3.4.5/libgcc.a(_muldi3.oS)
                              coreutils/lib.a(dd.o) (__muldi3)
/home/zion/gcc_jz2440/arm-linux-gcc-3.4.5-glibc-2.3.6/bin/../lib/gcc/arm-linux/3.4.5/libgcc.a(_lshrdi3.oS)
                              libbb/lib.a(md5.o) (__lshrdi3)
/home/zion/gcc_jz2440/arm-linux-gcc-3.4.5-glibc-2.3.6/bin/../lib/gcc/arm-linux/3.4.5/libgcc.a(_ashldi3.oS)
                              shell/lib.a(ash.o) (__ashldi3)
/home/zion/gcc_jz2440/arm-linux-gcc-3.4.5-glibc-2.3.6/bin/../lib/gcc/arm-linux/3.4.5/libgcc.a(_ashrdi3.oS)
                              shell/lib.a(ash.o) (__ashrdi3)
/home/zion/gcc_jz2440/arm-linux-gcc-3.4.5-glibc-2.3.6/bin/../lib/gcc/arm-linux/3.4.5/libgcc.a(_cmpdi2.oS)
                              shell/lib.a(ash.o) (__cmpdi2)
/home/zion/gcc_jz2440/arm-linux-gcc-3.4.5-glibc-2.3.6/bin/../lib/gcc/arm-linux/3.4.5/libgcc.a(_floatdidf.oS)
                              util-linux/lib.a(readprofile.o) (__floatdidf)
/home/zion/gcc_jz2440/arm-linux-gcc-3.4.5-glibc-2.3.6/bin/../lib/gcc/arm-linux/3.4.5/libgcc.a(_divdi3.oS)
                              coreutils/lib.a(expr.o) (__divdi3)
/home/zion/gcc_jz2440/arm-linux-gcc-3.4.5-glibc-2.3.6/bin/../lib/gcc/arm-linux/3.4.5/libgcc.a(_moddi3.oS)
                              archival/libunarchive/lib.a(data_align.o) (__moddi3)
/home/zion/gcc_jz2440/arm-linux-gcc-3.4.5-glibc-2.3.6/bin/../lib/gcc/arm-linux/3.4.5/libgcc.a(_udivdi3.oS)
                              coreutils/lib.a(df.o) (__udivdi3)
/home/zion/gcc_jz2440/arm-linux-gcc-3.4.5-glibc-2.3.6/bin/../lib/gcc/arm-linux/3.4.5/libgcc.a(_umoddi3.oS)
                              libbb/lib.a(inode_hash.o) (__umoddi3)
/home/zion/gcc_jz2440/arm-linux-gcc-3.4.5-glibc-2.3.6/bin/../lib/gcc/arm-linux/3.4.5/libgcc.a(_clz.oS)
                              /home/zion/gcc_jz2440/arm-linux-gcc-3.4.5-glibc-2.3.6/bin/../lib/gcc/arm-linux/3.4.5/libgcc.a(_divdi3.oS) (__clz_tab)
/home/zion/gcc_jz2440/arm-linux-gcc-3.4.5-glibc-2.3.6/bin/../lib/gcc/arm-linux/3.4.5/../../../../arm-linux/lib/libc_nonshared.a(elf-init.oST)
                              /home/zion/gcc_jz2440/arm-linux-gcc-3.4.5-glibc-2.3.6/bin/../lib/gcc/arm-linux/3.4.5/../../../../arm-linux/lib/crt1.o (__libc_csu_init)
/home/zion/gcc_jz2440/arm-linux-gcc-3.4.5-glibc-2.3.6/bin/../lib/gcc/arm-linux/3.4.5/../../../../arm-linux/lib/libc_nonshared.a(atexit.oST)
                              editors/lib.a(sed.o) (atexit)
/home/zion/gcc_jz2440/arm-linux-gcc-3.4.5-glibc-2.3.6/bin/../lib/gcc/arm-linux/3.4.5/../../../../arm-linux/lib/libc_nonshared.a(stat64.oST)
                              coreutils/lib.a(cp.o) (stat64)
/home/zion/gcc_jz2440/arm-linux-gcc-3.4.5-glibc-2.3.6/bin/../lib/gcc/arm-linux/3.4.5/../../../../arm-linux/lib/libc_nonshared.a(lstat64.oST)
                              coreutils/lib.a(cp.o) (lstat64)

Memory Configuration

Name             Origin             Length             Attributes
*default*        0x00000000         0xffffffff

Linker script and memory map

LOAD /home/zion/gcc_jz2440/arm-linux-gcc-3.4.5-glibc-2.3.6/bin/../lib/gcc/arm-linux/3.4.5/../../../../arm-linux/lib/crt1.o
LOAD /home/zion/gcc_jz2440/arm-linux-gcc-3.4.5-glibc-2.3.6/bin/../lib/gcc/arm-linux/3.4.5/../../../../arm-linux/lib/crti.o
LOAD /home/zion/gcc_jz2440/arm-linux-gcc-3.4.5-glibc-2.3.6/bin/../lib/gcc/arm-linux/3.4.5/crtbegin.o
START GROUP
LOAD applets/built-in.o
LOAD archival/lib.a
LOAD archival/libunarchive/lib.a
LOAD console-tools/lib.a
LOAD coreutils/lib.a
LOAD coreutils/libcoreutils/lib.a
LOAD debianutils/lib.a
LOAD e2fsprogs/lib.a
LOAD editors/lib.a
LOAD findutils/lib.a
LOAD init/lib.a
LOAD ipsvd/lib.a
LOAD libbb/lib.a
LOAD libpwdgrp/lib.a
LOAD loginutils/lib.a
LOAD miscutils/lib.a
LOAD modutils/lib.a
LOAD networking/lib.a
LOAD networking/libiproute/lib.a
LOAD networking/udhcp/lib.a
LOAD procps/lib.a
LOAD runit/lib.a
LOAD selinux/lib.a
LOAD shell/lib.a
LOAD sysklogd/lib.a
LOAD util-linux/lib.a
LOAD archival/built-in.o
LOAD archival/libunarchive/built-in.o
LOAD console-tools/built-in.o
LOAD coreutils/built-in.o
LOAD coreutils/libcoreutils/built-in.o
LOAD debianutils/built-in.o
LOAD e2fsprogs/built-in.o
LOAD editors/built-in.o
LOAD findutils/built-in.o
LOAD init/built-in.o
LOAD ipsvd/built-in.o
LOAD libbb/built-in.o
LOAD libpwdgrp/built-in.o
LOAD loginutils/built-in.o
LOAD miscutils/built-in.o
LOAD modutils/built-in.o
LOAD networking/built-in.o
LOAD networking/libiproute/built-in.o
LOAD networking/udhcp/built-in.o
LOAD procps/built-in.o
LOAD runit/built-in.o
LOAD selinux/built-in.o
LOAD shell/built-in.o
LOAD sysklogd/built-in.o
LOAD util-linux/built-in.o
END GROUP
START GROUP
LOAD /home/zion/gcc_jz2440/arm-linux-gcc-3.4.5-glibc-2.3.6/bin/../lib/gcc/arm-linux/3.4.5/../../../../arm-linux/lib/libcrypt.so
LOAD /home/zion/gcc_jz2440/arm-linux-gcc-3.4.5-glibc-2.3.6/bin/../lib/gcc/arm-linux/3.4.5/../../../../arm-linux/lib/libm.so
END GROUP
LOAD /home/zion/gcc_jz2440/arm-linux-gcc-3.4.5-glibc-2.3.6/bin/../lib/gcc/arm-linux/3.4.5/libgcc.a
LOAD /home/zion/gcc_jz2440/arm-linux-gcc-3.4.5-glibc-2.3.6/bin/../lib/gcc/arm-linux/3.4.5/../../../../arm-linux/lib/libgcc_s.so
LOAD /home/zion/gcc_jz2440/arm-linux-gcc-3.4.5-glibc-2.3.6/bin/../lib/gcc/arm-linux/3.4.5/../../../../arm-linux/lib/libc.so
START GROUP
LOAD /home/zion/gcc_jz2440/arm-linux-gcc-3.4.5-glibc-2.3.6/bin/../lib/gcc/arm-linux/3.4.5/../../../../arm-linux/lib/libc.so.6
LOAD /home/zion/gcc_jz2440/arm-linux-gcc-3.4.5-glibc-2.3.6/bin/../lib/gcc/arm-linux/3.4.5/../../../../arm-linux/lib/libc_nonshared.a
END GROUP
LOAD /home/zion/gcc_jz2440/arm-linux-gcc-3.4.5-glibc-2.3.6/bin/../lib/gcc/arm-linux/3.4.5/libgcc.a
LOAD /home/zion/gcc_jz2440/arm-linux-gcc-3.4.5-glibc-2.3.6/bin/../lib/gcc/arm-linux/3.4.5/../../../../arm-linux/lib/libgcc_s.so
LOAD /home/zion/gcc_jz2440/arm-linux-gcc-3.4.5-glibc-2.3.6/bin/../lib/gcc/arm-linux/3.4.5/crtend.o
LOAD /home/zion/gcc_jz2440/arm-linux-gcc-3.4.5-glibc-2.3.6/bin/../lib/gcc/arm-linux/3.4.5/../../../../arm-linux/lib/crtn.o
                0x00008000                PROVIDE (__executable_start, 0x8000)
                0x000080f4                . = (0x8000 + SIZEOF_HEADERS)

.interp         0x000080f4       0x13
 *(.interp)
 .interp        0x000080f4       0x13 /home/zion/gcc_jz2440/arm-linux-gcc-3.4.5-glibc-2.3.6/bin/../lib/gcc/arm-linux/3.4.5/../../../../arm-linux/lib/crti.o

.note.ABI-tag   0x00008108       0x20
 .note.ABI-tag  0x00008108       0x20 /home/zion/gcc_jz2440/arm-linux-gcc-3.4.5-glibc-2.3.6/bin/../lib/gcc/arm-linux/3.4.5/../../../../arm-linux/lib/crt1.o

.hash           0x00008128      0xa74
 *(.hash)
 .hash          0x00008128      0xa74 /home/zion/gcc_jz2440/arm-linux-gcc-3.4.5-glibc-2.3.6/bin/../lib/gcc/arm-linux/3.4.5/../../../../arm-linux/lib/crti.o

.dynsym         0x00008b9c     0x1940
 *(.dynsym)
 .dynsym        0x00008b9c     0x1940 /home/zion/gcc_jz2440/arm-linux-gcc-3.4.5-glibc-2.3.6/bin/../lib/gcc/arm-linux/3.4.5/../../../../arm-linux/lib/crti.o

.dynstr         0x0000a4dc      0xdb6
 *(.dynstr)
 .dynstr        0x0000a4dc      0xdb6 /home/zion/gcc_jz2440/arm-linux-gcc-3.4.5-glibc-2.3.6/bin/../lib/gcc/arm-linux/3.4.5/../../../../arm-linux/lib/crti.o

.gnu.version    0x0000b292      0x328
 *(.gnu.version)
 .gnu.version   0x0000b292      0x328 /home/zion/gcc_jz2440/arm-linux-gcc-3.4.5-glibc-2.3.6/bin/../lib/gcc/arm-linux/3.4.5/../../../../arm-linux/lib/crti.o

.gnu.version_d
 *(.gnu.version_d)

.gnu.version_r  0x0000b5bc       0xe0
 *(.gnu.version_r)
 .gnu.version_r
                0x0000b5bc       0xe0 /home/zion/gcc_jz2440/arm-linux-gcc-3.4.5-glibc-2.3.6/bin/../lib/gcc/arm-linux/3.4.5/../../../../arm-linux/lib/crti.o

.rel.dyn        0x0000b69c       0x70
 *(.rel.init)
 *(.rel.text .rel.text.* .rel.gnu.linkonce.t.*)
 *(.rel.fini)
 *(.rel.rodata .rel.rodata.* .rel.gnu.linkonce.r.*)
 *(.rel.data .rel.data.* .rel.gnu.linkonce.d.*)
 *(.rel.tdata .rel.tdata.* .rel.gnu.linkonce.td.*)
 *(.rel.tbss .rel.tbss.* .rel.gnu.linkonce.tb.*)
 *(.rel.ctors)
 *(.rel.dtors)
 *(.rel.got)
 .rel.got       0x0000b69c       0x28 /home/zion/gcc_jz2440/arm-linux-gcc-3.4.5-glibc-2.3.6/bin/../lib/gcc/arm-linux/3.4.5/../../../../arm-linux/lib/crti.o
 *(.rel.bss .rel.bss.* .rel.gnu.linkonce.b.*)
 .rel.bss       0x0000b6c4       0x48 /home/zion/gcc_jz2440/arm-linux-gcc-3.4.5-glibc-2.3.6/bin/../lib/gcc/arm-linux/3.4.5/../../../../arm-linux/lib/crti.o

.rela.dyn
 *(.rela.init)
 *(.rela.text .rela.text.* .rela.gnu.linkonce.t.*)
 *(.rela.fini)
 *(.rela.rodata .rela.rodata.* .rela.gnu.linkonce.r.*)
 *(.rela.data .rela.data.* .rela.gnu.linkonce.d.*)
 *(.rela.tdata .rela.tdata.* .rela.gnu.linkonce.td.*)
 *(.rela.tbss .rela.tbss.* .rela.gnu.linkonce.tb.*)
 *(.rela.ctors)
 *(.rela.dtors)
 *(.rela.got)
 *(.rela.bss .rela.bss.* .rela.gnu.linkonce.b.*)

.rel.plt        0x0000b70c      0xc00
 *(.rel.plt)
 .rel.plt       0x0000b70c      0xc00 /home/zion/gcc_jz2440/arm-linux-gcc-3.4.5-glibc-2.3.6/bin/../lib/gcc/arm-linux/3.4.5/../../../../arm-linux/lib/crti.o

.rela.plt
 *(.rela.plt)

.init           0x0000c30c       0x14
 *(.init)
 .init          0x0000c30c        0x8 /home/zion/gcc_jz2440/arm-linux-gcc-3.4.5-glibc-2.3.6/bin/../lib/gcc/arm-linux/3.4.5/../../../../arm-linux/lib/crti.o
                0x0000c30c                _init
 .init          0x0000c314        0x4 /home/zion/gcc_jz2440/arm-linux-gcc-3.4.5-glibc-2.3.6/bin/../lib/gcc/arm-linux/3.4.5/crtbegin.o
 .init          0x0000c318        0x4 /home/zion/gcc_jz2440/arm-linux-gcc-3.4.5-glibc-2.3.6/bin/../lib/gcc/arm-linux/3.4.5/crtend.o
 .init          0x0000c31c        0x4 /home/zion/gcc_jz2440/arm-linux-gcc-3.4.5-glibc-2.3.6/bin/../lib/gcc/arm-linux/3.4.5/../../../../arm-linux/lib/crtn.o

.plt            0x0000c320     0x1214
 *(.plt)
 .plt           0x0000c320     0x1214 /home/zion/gcc_jz2440/arm-linux-gcc-3.4.5-glibc-2.3.6/bin/../lib/gcc/arm-linux/3.4.5/../../../../arm-linux/lib/crti.o
                0x0000c334                fileno@@GLIBC_2.0
                0x0000c340                getpagesize@@GLIBC_2.0
                0x0000c34c                fputs@@GLIBC_2.0
                0x0000c358                abort@@GLIBC_2.0
                0x0000c364                __errno_location@@GLIBC_2.0
                0x0000c370                setmntent@@GLIBC_2.0
                0x0000c37c                semget@@GLIBC_2.0
                0x0000c388                sigemptyset@@GLIBC_2.0
                0x0000c394                inet_ntop@@GLIBC_2.0
                0x0000c3a0                sprintf@@GLIBC_2.0
                0x0000c3ac                init_module@@GLIBC_2.0
                0x0000c3b8                popen@@GLIBC_2.1
                0x0000c3c4                srand@@GLIBC_2.0
                0x0000c3d0                setusershell@@GLIBC_2.0
                0x0000c3dc                connect@@GLIBC_2.0
                0x0000c3e8                isprint@@GLIBC_2.0
                0x0000c3f4                __res_state@@GLIBC_2.2
                0x0000c400                clnt_spcreateerror@@GLIBC_2.0
                0x0000c40c                setgroups@@GLIBC_2.0
                0x0000c418                statfs64@@GLIBC_2.1
                0x0000c424                getpid@@GLIBC_2.0
                0x0000c430                mkdir@@GLIBC_2.0
                0x0000c43c                isalpha@@GLIBC_2.0
                0x0000c448                strerror@@GLIBC_2.0
                0x0000c454                setbuf@@GLIBC_2.0
                0x0000c460                creat64@@GLIBC_2.1
                0x0000c46c                getsockname@@GLIBC_2.0
                0x0000c478                __cxa_atexit@@GLIBC_2.1.3
                0x0000c484                regfree@@GLIBC_2.0
                0x0000c490                setrlimit64@@GLIBC_2.1
                0x0000c49c                strcoll@@GLIBC_2.0
                0x0000c4a8                sysconf@@GLIBC_2.0
                0x0000c4b4                memcmp@@GLIBC_2.0
                0x0000c4c0                qsort@@GLIBC_2.0
                0x0000c4cc                inet_ntoa@@GLIBC_2.0
                0x0000c4d8                freeaddrinfo@@GLIBC_2.0
                0x0000c4e4                syslog@@GLIBC_2.0
                0x0000c4f0                vprintf@@GLIBC_2.0
                0x0000c4fc                getchar@@GLIBC_2.0
                0x0000c508                bsearch@@GLIBC_2.0
                0x0000c514                setlinebuf@@GLIBC_2.0
                0x0000c520                shutdown@@GLIBC_2.0
                0x0000c52c                open64@@GLIBC_2.1
                0x0000c538                msgget@@GLIBC_2.0
                0x0000c544                clnttcp_create@@GLIBC_2.0
                0x0000c550                signal@@GLIBC_2.0
                0x0000c55c                syscall@@GLIBC_2.0
                0x0000c574                ispunct@@GLIBC_2.0
                0x0000c580                realloc@@GLIBC_2.0
                0x0000c58c                strsep@@GLIBC_2.0
                0x0000c598                sched_yield@@GLIBC_2.0
                0x0000c5a4                pivot_root@@GLIBC_2.2.1
                0x0000c5b0                sync@@GLIBC_2.0
                0x0000c5bc                rewind@@GLIBC_2.0
                0x0000c5c8                unsetenv@@GLIBC_2.0
                0x0000c5d4                isspace@@GLIBC_2.0
                0x0000c5e0                __xstat64@@GLIBC_2.2
                0x0000c5ec                vsprintf@@GLIBC_2.0
                0x0000c5f8                localtime@@GLIBC_2.0
                0x0000c604                cfgetispeed@@GLIBC_2.0
                0x0000c610                clearenv@@GLIBC_2.0
                0x0000c61c                dirname@@GLIBC_2.0
                0x0000c628                strtod@@GLIBC_2.0
                0x0000c634                strchr@@GLIBC_2.0
                0x0000c640                vsnprintf@@GLIBC_2.0
                0x0000c64c                recv@@GLIBC_2.0
                0x0000c658                getenv@@GLIBC_2.0
                0x0000c664                strptime@@GLIBC_2.0
                0x0000c670                inet_addr@@GLIBC_2.0
                0x0000c67c                system@@GLIBC_2.0
                0x0000c688                strncpy@@GLIBC_2.0
                0x0000c694                query_module@@GLIBC_2.0
                0x0000c6a0                putchar@@GLIBC_2.0
                0x0000c6ac                shmat@@GLIBC_2.0
                0x0000c6b8                swapon@@GLIBC_2.0
                0x0000c6c4                fchown@@GLIBC_2.0
                0x0000c6d0                ttyname@@GLIBC_2.0
                0x0000c6dc                write@@GLIBC_2.0
                0x0000c6e8                tzset@@GLIBC_2.0
                0x0000c6f4                sendto@@GLIBC_2.0
                0x0000c700                semop@@GLIBC_2.0
                0x0000c70c                pow@@GLIBC_2.0
                0x0000c718                listen@@GLIBC_2.0
                0x0000c724                toupper@@GLIBC_2.0
                0x0000c730                sendmsg@@GLIBC_2.0
                0x0000c73c                fgets@@GLIBC_2.0
                0x0000c748                rename@@GLIBC_2.0
                0x0000c754                regexec@@GLIBC_2.3.4
                0x0000c760                getlogin@@GLIBC_2.0
                0x0000c76c                sched_setscheduler@@GLIBC_2.0
                0x0000c778                memset@@GLIBC_2.0
                0x0000c784                setitimer@@GLIBC_2.0
                0x0000c790                fopen64@@GLIBC_2.1
                0x0000c79c                isxdigit@@GLIBC_2.0
                0x0000c7a8                setsid@@GLIBC_2.0
                0x0000c7b4                sched_getscheduler@@GLIBC_2.0
                0x0000c7c0                getprotobyname@@GLIBC_2.0
                0x0000c7cc                sched_get_priority_max@@GLIBC_2.0
                0x0000c7d8                __libc_start_main@@GLIBC_2.0
                0x0000c7e4                umount2@@GLIBC_2.1
                0x0000c7f0                clnt_sperror@@GLIBC_2.0
                0x0000c7fc                execl@@GLIBC_2.0
                0x0000c808                _IO_getc@@GLIBC_2.0
                0x0000c814                wait@@GLIBC_2.0
                0x0000c820                _exit@@GLIBC_2.0
                0x0000c82c                if_nametoindex@@GLIBC_2.1
                0x0000c838                strrchr@@GLIBC_2.0
                0x0000c844                mount@@GLIBC_2.0
                0x0000c850                uname@@GLIBC_2.0
                0x0000c85c                tcgetattr@@GLIBC_2.0
                0x0000c868                chmod@@GLIBC_2.0
                0x0000c874                xdr_int@@GLIBC_2.0
                0x0000c880                iscntrl@@GLIBC_2.0
                0x0000c88c                getopt_long_only@@GLIBC_2.0
                0x0000c898                wait4@@GLIBC_2.0
                0x0000c8a4                read@@GLIBC_2.0
                0x0000c8b0                authunix_create_default@@GLIBC_2.0
                0x0000c8bc                strtoll@@GLIBC_2.0
                0x0000c8c8                umount@@GLIBC_2.0
                0x0000c8d4                perror@@GLIBC_2.0
                0x0000c8e0                exp@@GLIBC_2.0
                0x0000c8ec                cfmakeraw@@GLIBC_2.0
                0x0000c8f8                ungetc@@GLIBC_2.0
                0x0000c904                usleep@@GLIBC_2.0
                0x0000c910                swapoff@@GLIBC_2.0
                0x0000c91c                xdr_opaque@@GLIBC_2.0
                0x0000c928                gettimeofday@@GLIBC_2.0
                0x0000c934                strtol@@GLIBC_2.0
                0x0000c940                fdopen@@GLIBC_2.1
                0x0000c94c                tcsetpgrp@@GLIBC_2.0
                0x0000c958                getservbyport@@GLIBC_2.0
                0x0000c964                __ctype_toupper_loc@@GLIBC_2.3
                0x0000c970                hstrerror@@GLIBC_2.0
                0x0000c97c                free@@GLIBC_2.0
                0x0000c988                strtoull@@GLIBC_2.0
                0x0000c994                inet_pton@@GLIBC_2.0
                0x0000c9a0                shmctl@@GLIBC_2.2
                0x0000c9ac                __xmknod@@GLIBC_2.0
                0x0000c9b8                __lxstat64@@GLIBC_2.2
                0x0000c9c4                setresuid@@GLIBC_2.0
                0x0000c9d0                execle@@GLIBC_2.0
                0x0000c9dc                bindresvport@@GLIBC_2.0
                0x0000c9e8                openlog@@GLIBC_2.0
                0x0000c9f4                ether_aton@@GLIBC_2.0
                0x0000ca00                setpgid@@GLIBC_2.0
                0x0000ca0c                scanf@@GLIBC_2.0
                0x0000ca18                shmdt@@GLIBC_2.0
                0x0000ca24                access@@GLIBC_2.0
                0x0000ca30                ether_ntoa@@GLIBC_2.0
                0x0000ca3c                semctl@@GLIBC_2.2
                0x0000ca48                gethostid@@GLIBC_2.0
                0x0000ca54                setresgid@@GLIBC_2.0
                0x0000ca60                sigaction@@GLIBC_2.0
                0x0000ca6c                setpriority@@GLIBC_2.0
                0x0000ca78                fflush@@GLIBC_2.0
                0x0000ca84                sqrt@@GLIBC_2.0
                0x0000ca90                regcomp@@GLIBC_2.0
                0x0000ca9c                opendir@@GLIBC_2.0
                0x0000caa8                getopt_long@@GLIBC_2.0
                0x0000cab4                accept@@GLIBC_2.0
                0x0000cac0                tcflush@@GLIBC_2.0
                0x0000cacc                symlink@@GLIBC_2.0
                0x0000cad8                ioctl@@GLIBC_2.0
                0x0000cae4                socket@@GLIBC_2.0
                0x0000caf0                dup2@@GLIBC_2.0
                0x0000cafc                fseek@@GLIBC_2.0
                0x0000cb08                inet_aton@@GLIBC_2.0
                0x0000cb14                vsyslog@@GLIBC_2.0
                0x0000cb20                getpriority@@GLIBC_2.0
                0x0000cb2c                execlp@@GLIBC_2.0
                0x0000cb38                isatty@@GLIBC_2.0
                0x0000cb44                isblank@@GLIBC_2.0
                0x0000cb50                realpath@@GLIBC_2.3
                0x0000cb5c                strsignal@@GLIBC_2.0
                0x0000cb68                vfork@@GLIBC_2.0
                0x0000cb74                getaddrinfo@@GLIBC_2.0
                0x0000cb80                umask@@GLIBC_2.0
                0x0000cb8c                fclose@@GLIBC_2.1
                0x0000cb98                ftello64@@GLIBC_2.1
                0x0000cba4                sethostname@@GLIBC_2.0
                0x0000cbb0                setuid@@GLIBC_2.0
                0x0000cbbc                dup@@GLIBC_2.0
                0x0000cbc8                dprintf@@GLIBC_2.0
                0x0000cbd4                _setjmp@@GLIBC_2.0
                0x0000cbe0                tcgetpgrp@@GLIBC_2.0
                0x0000cbec                mktime@@GLIBC_2.0
                0x0000cbf8                fsync@@GLIBC_2.0
                0x0000cc04                readdir64@@GLIBC_2.2
                0x0000cc10                getopt@@GLIBC_2.0
                0x0000cc1c                xdr_enum@@GLIBC_2.0
                0x0000cc28                clntudp_create@@GLIBC_2.0
                0x0000cc34                memcpy@@GLIBC_2.0
                0x0000cc40                cfsetospeed@@GLIBC_2.0
                0x0000cc4c                utime@@GLIBC_2.0
                0x0000cc58                execv@@GLIBC_2.0
                0x0000cc64                reboot@@GLIBC_2.0
                0x0000cc70                strtoul@@GLIBC_2.0
                0x0000cc7c                execvp@@GLIBC_2.0
                0x0000cc88                strlen@@GLIBC_2.0
                0x0000cc94                getdomainname@@GLIBC_2.0
                0x0000cca0                cos@@GLIBC_2.0
                0x0000ccac                alarm@@GLIBC_2.0
                0x0000ccb8                mkdtemp@@GLIBC_2.2
                0x0000ccc4                unlink@@GLIBC_2.0
                0x0000ccd0                nice@@GLIBC_2.0
                0x0000ccdc                klogctl@@GLIBC_2.0
                0x0000cce8                sched_getparam@@GLIBC_2.0
                0x0000ccf4                asprintf@@GLIBC_2.0
                0x0000cd00                getppid@@GLIBC_2.0
                0x0000cd0c                setlocale@@GLIBC_2.0
                0x0000cd18                waitpid@@GLIBC_2.0
                0x0000cd24                clearerr@@GLIBC_2.0
                0x0000cd30                sigdelset@@GLIBC_2.0
                0x0000cd3c                __h_errno_location@@GLIBC_2.0
                0x0000cd48                fgetc@@GLIBC_2.0
                0x0000cd54                __xpg_basename@@GLIBC_2.0
                0x0000cd60                stime@@GLIBC_2.0
                0x0000cd6c                feof@@GLIBC_2.0
                0x0000cd78                chroot@@GLIBC_2.0
                0x0000cd84                strcpy@@GLIBC_2.0
                0x0000cd90                getegid@@GLIBC_2.0
                0x0000cd9c                ftell@@GLIBC_2.0
                0x0000cda8                longjmp@@GLIBC_2.0
                0x0000cdb4                isascii@@GLIBC_2.0
                0x0000cdc0                printf@@GLIBC_2.0
                0x0000cdcc                pmap_getmaps@@GLIBC_2.0
                0x0000cdd8                killpg@@GLIBC_2.0
                0x0000cde4                mkfifo@@GLIBC_2.0
                0x0000cdf0                chdir@@GLIBC_2.0
                0x0000cdfc                ctime@@GLIBC_2.0
                0x0000ce08                bind@@GLIBC_2.0
                0x0000ce14                getuid@@GLIBC_2.0
                0x0000ce20                sched_getaffinity@@GLIBC_2.3.4
                0x0000ce2c                raise@@GLIBC_2.0
                0x0000ce38                create_module@@GLIBC_2.0
                0x0000ce44                gethostbyaddr@@GLIBC_2.0
                0x0000ce50                atoi@@GLIBC_2.0
                0x0000ce5c                putenv@@GLIBC_2.0
                0x0000ce68                wait3@@GLIBC_2.0
                0x0000ce74                xdr_bytes@@GLIBC_2.0
                0x0000ce80                strcasecmp@@GLIBC_2.0
                0x0000ce8c                ptsname@@GLIBC_2.1
                0x0000ce98                atof@@GLIBC_2.0
                0x0000cea4                mkstemp64@@GLIBC_2.2
                0x0000ceb0                getutent@@GLIBC_2.0
                0x0000cebc                regerror@@GLIBC_2.0
                0x0000cec8                select@@GLIBC_2.0
                0x0000ced4                getmntent_r@@GLIBC_2.0
                0x0000cee0                closedir@@GLIBC_2.0
                0x0000ceec                close@@GLIBC_2.0
                0x0000cef8                fwrite@@GLIBC_2.0
                0x0000cf04                xdr_string@@GLIBC_2.0
                0x0000cf10                isalnum@@GLIBC_2.0
                0x0000cf1c                fprintf@@GLIBC_2.0
                0x0000cf28                strstr@@GLIBC_2.0
                0x0000cf34                time@@GLIBC_2.0
                0x0000cf40                setvbuf@@GLIBC_2.0
                0x0000cf4c                strncat@@GLIBC_2.0
                0x0000cf58                remove@@GLIBC_2.0
                0x0000cf64                execve@@GLIBC_2.0
                0x0000cf70                ftruncate64@@GLIBC_2.1
                0x0000cf7c                malloc@@GLIBC_2.0
                0x0000cf88                sigprocmask@@GLIBC_2.0
                0x0000cf94                endmntent@@GLIBC_2.0
                0x0000cfa0                isupper@@GLIBC_2.0
                0x0000cfac                getlogin_r@@GLIBC_2.0
                0x0000cfb8                isgraph@@GLIBC_2.0
                0x0000cfc4                __cmsg_nxthdr@@GLIBC_2.0
                0x0000cfd0                sched_get_priority_min@@GLIBC_2.0
                0x0000cfdc                getmntent@@GLIBC_2.0
                0x0000cfe8                msgctl@@GLIBC_2.2
                0x0000cff4                gethostname@@GLIBC_2.0
                0x0000d000                munlock@@GLIBC_2.0
                0x0000d00c                atan2@@GLIBC_2.0
                0x0000d018                fputc@@GLIBC_2.0
                0x0000d024                memrchr@@GLIBC_2.2
                0x0000d030                xdr_u_int@@GLIBC_2.0
                0x0000d03c                vdprintf@@GLIBC_2.0
                0x0000d048                rmdir@@GLIBC_2.0
                0x0000d054                strtok@@GLIBC_2.0
                0x0000d060                strnlen@@GLIBC_2.0
                0x0000d06c                strcasestr@@GLIBC_2.1
                0x0000d078                readahead@@GLIBC_2.3
                0x0000d084                poll@@GLIBC_2.0
                0x0000d090                sleep@@GLIBC_2.0
                0x0000d09c                sigaddset@@GLIBC_2.0
                0x0000d0a8                readlink@@GLIBC_2.0
                0x0000d0b4                strncasecmp@@GLIBC_2.0
                0x0000d0c0                memmove@@GLIBC_2.0
                0x0000d0cc                cfgetospeed@@GLIBC_2.0
                0x0000d0d8                endutent@@GLIBC_2.0
                0x0000d0e4                __ctype_tolower_loc@@GLIBC_2.3
                0x0000d0f0                getnameinfo@@GLIBC_2.1
                0x0000d0fc                strcat@@GLIBC_2.0
                0x0000d108                pause@@GLIBC_2.0
                0x0000d114                getcwd@@GLIBC_2.0
                0x0000d120                sigfillset@@GLIBC_2.0
                0x0000d12c                ether_hostton@@GLIBC_2.0
                0x0000d138                vasprintf@@GLIBC_2.0
                0x0000d144                settimeofday@@GLIBC_2.0
                0x0000d150                log@@GLIBC_2.0
                0x0000d15c                puts@@GLIBC_2.0
                0x0000d168                recvmsg@@GLIBC_2.0
                0x0000d174                fork@@GLIBC_2.0
                0x0000d180                utmpname@@GLIBC_2.0
                0x0000d18c                __fxstat64@@GLIBC_2.2
                0x0000d198                setsockopt@@GLIBC_2.0
                0x0000d1a4                pmap_getport@@GLIBC_2.0
                0x0000d1b0                tcsetattr@@GLIBC_2.0
                0x0000d1bc                fcntl@@GLIBC_2.0
                0x0000d1c8                updwtmp@@GLIBC_2.0
                0x0000d1d4                getrlimit64@@GLIBC_2.2
                0x0000d1e0                flock@@GLIBC_2.0
                0x0000d1ec                rand@@GLIBC_2.0
                0x0000d1f8                strspn@@GLIBC_2.0
                0x0000d204                delete_module@@GLIBC_2.0
                0x0000d210                sscanf@@GLIBC_2.0
                0x0000d21c                gmtime@@GLIBC_2.0
                0x0000d228                getusershell@@GLIBC_2.0
                0x0000d234                fscanf@@GLIBC_2.0
                0x0000d240                getgroups@@GLIBC_2.0
                0x0000d24c                memchr@@GLIBC_2.0
                0x0000d258                sendfile64@@GLIBC_2.3
                0x0000d264                fnmatch@@GLIBC_2.2.3
                0x0000d270                strncmp@@GLIBC_2.0
                0x0000d27c                lchown@@GLIBC_2.0
                0x0000d288                crypt@@GLIBC_2.0
                0x0000d294                setutent@@GLIBC_2.0
                0x0000d2a0                vfprintf@@GLIBC_2.0
                0x0000d2ac                unlockpt@@GLIBC_2.1
                0x0000d2b8                link@@GLIBC_2.0
                0x0000d2c4                personality@@GLIBC_2.0
                0x0000d2d0                _IO_putc@@GLIBC_2.0
                0x0000d2dc                munmap@@GLIBC_2.0
                0x0000d2e8                mlock@@GLIBC_2.0
                0x0000d2f4                strpbrk@@GLIBC_2.0
                0x0000d300                xdr_array@@GLIBC_2.0
                0x0000d30c                pipe@@GLIBC_2.0
                0x0000d318                fchdir@@GLIBC_2.0
                0x0000d324                fread@@GLIBC_2.0
                0x0000d330                getsockopt@@GLIBC_2.0
                0x0000d33c                closelog@@GLIBC_2.0
                0x0000d348                strftime@@GLIBC_2.0
                0x0000d354                setgid@@GLIBC_2.0
                0x0000d360                snprintf@@GLIBC_2.0
                0x0000d36c                kill@@GLIBC_2.0
                0x0000d378                __res_init@@GLIBC_2.2
                0x0000d384                mmap64@@GLIBC_2.1
                0x0000d390                times@@GLIBC_2.0
                0x0000d39c                strchrnul@@GLIBC_2.1.1
                0x0000d3a8                strcspn@@GLIBC_2.0
                0x0000d3b4                grantpt@@GLIBC_2.1
                0x0000d3c0                sin@@GLIBC_2.0
                0x0000d3cc                strdup@@GLIBC_2.0
                0x0000d3d8                getpeername@@GLIBC_2.0
                0x0000d3e4                gethostbyname@@GLIBC_2.0
                0x0000d3f0                chown@@GLIBC_2.0
                0x0000d3fc                recvfrom@@GLIBC_2.0
                0x0000d408                ferror@@GLIBC_2.0
                0x0000d414                sysinfo@@GLIBC_2.0
                0x0000d420                tolower@@GLIBC_2.0
                0x0000d42c                lseek64@@GLIBC_2.1
                0x0000d438                getitimer@@GLIBC_2.0
                0x0000d444                endusershell@@GLIBC_2.0
                0x0000d450                strcmp@@GLIBC_2.0
                0x0000d45c                getservbyname@@GLIBC_2.0
                0x0000d468                adjtimex@@GLIBC_2.0
                0x0000d474                setenv@@GLIBC_2.0
                0x0000d480                exit@@GLIBC_2.0
                0x0000d48c                cfsetispeed@@GLIBC_2.0
                0x0000d498                difftime@@GLIBC_2.0
                0x0000d4a4                fchmod@@GLIBC_2.0
                0x0000d4b0                pclose@@GLIBC_2.1
                0x0000d4bc                islower@@GLIBC_2.0
                0x0000d4c8                sched_setaffinity@@GLIBC_2.3.4
                0x0000d4d4                sigsuspend@@GLIBC_2.0
                0x0000d4e0                freopen64@@GLIBC_2.1
                0x0000d4ec                getpgrp@@GLIBC_2.0
                0x0000d4f8                getgid@@GLIBC_2.0
                0x0000d504                shmget@@GLIBC_2.0
                0x0000d510                getsid@@GLIBC_2.0
                0x0000d51c                pututline@@GLIBC_2.0
                0x0000d528                geteuid@@GLIBC_2.0

.text           0x0000d534    0x92784
 *(.text .stub .text.* .gnu.linkonce.t.*)
 .text          0x0000d534       0x38 /home/zion/gcc_jz2440/arm-linux-gcc-3.4.5-glibc-2.3.6/bin/../lib/gcc/arm-linux/3.4.5/../../../../arm-linux/lib/crt1.o
                0x0000d534                _start
 .text          0x0000d56c       0x30 /home/zion/gcc_jz2440/arm-linux-gcc-3.4.5-glibc-2.3.6/bin/../lib/gcc/arm-linux/3.4.5/../../../../arm-linux/lib/crti.o
 .text          0x0000d59c       0x8c /home/zion/gcc_jz2440/arm-linux-gcc-3.4.5-glibc-2.3.6/bin/../lib/gcc/arm-linux/3.4.5/crtbegin.o
 .text.get_trimmed_slice
                0x0000d628       0x44 applets/built-in.o
 .text.bb_show_usage
                0x0000d66c      0x104 applets/built-in.o
                0x0000d66c                bb_show_usage
 .text.applet_name_compare
                0x0000d770        0x8 applets/built-in.o
 .text.find_applet_by_name
                0x0000d778       0x30 applets/built-in.o
                0x0000d778                find_applet_by_name
 .text.run_current_applet_and_exit
                0x0000d7a8      0x21c applets/built-in.o
                0x0000d7a8                run_current_applet_and_exit
 .text.run_applet_and_exit
                0x0000d9c4      0x298 applets/built-in.o
                0x0000d9c4                run_applet_and_exit
 .text.main     0x0000dc5c      0x440 applets/built-in.o
                0x0000dc5c                main
 .text.header_verbose_list_ar
                0x0000e09c       0x78 archival/lib.a(ar.o)
 .text.ar_main  0x0000e114      0x180 archival/lib.a(ar.o)
                0x0000e114                ar_main
 .text.open_to_or_warn
                0x0000e294       0x38 archival/lib.a(bbunzip.o)
 .text.bbunpack
                0x0000e2cc      0x1bc archival/lib.a(bbunzip.o)
                0x0000e2cc                bbunpack
 .text.make_new_name_generic
                0x0000e488       0x40 archival/lib.a(bbunzip.o)
 .text.make_new_name_bunzip2
                0x0000e4c8        0xc archival/lib.a(bbunzip.o)
 .text.unpack_bunzip2
                0x0000e4d4        0xc archival/lib.a(bbunzip.o)
 .text.bunzip2_main
                0x0000e4e0       0x6c archival/lib.a(bbunzip.o)
                0x0000e4e0                bunzip2_main
 .text.make_new_name_gunzip
                0x0000e54c       0xac archival/lib.a(bbunzip.o)
 .text.unpack_gunzip
                0x0000e5f8       0x90 archival/lib.a(bbunzip.o)
 .text.gunzip_main
                0x0000e688       0x6c archival/lib.a(bbunzip.o)
                0x0000e688                gunzip_main
 .text.make_new_name_unlzma
                0x0000e6f4        0xc archival/lib.a(bbunzip.o)
 .text.unpack_unlzma
                0x0000e700        0xc archival/lib.a(bbunzip.o)
 .text.unlzma_main
                0x0000e70c       0x6c archival/lib.a(bbunzip.o)
                0x0000e70c                unlzma_main
 .text.make_new_name_uncompress
                0x0000e778        0xc archival/lib.a(bbunzip.o)
 .text.unpack_uncompress
                0x0000e784       0x60 archival/lib.a(bbunzip.o)
 .text.uncompress_main
                0x0000e7e4       0x40 archival/lib.a(bbunzip.o)
                0x0000e7e4                uncompress_main
 .text.cpio_main
                0x0000e824      0x164 archival/lib.a(cpio.o)
                0x0000e824                cpio_main
 .text.flush_outbuf
                0x0000e988       0x34 archival/lib.a(gzip.o)
 .text.put_16bit
                0x0000e9bc       0x84 archival/lib.a(gzip.o)
 .text.put_32bit
                0x0000ea40       0x20 archival/lib.a(gzip.o)
 .text.file_read
                0x0000ea60       0x80 archival/lib.a(gzip.o)
 .text.send_bits
                0x0000eae0       0xb0 archival/lib.a(gzip.o)
 .text.bi_reverse
                0x0000eb90       0x28 archival/lib.a(gzip.o)
 .text.bi_windup
                0x0000ebb8       0x70 archival/lib.a(gzip.o)
 .text.copy_block
                0x0000ec28       0x7c archival/lib.a(gzip.o)
 .text.fill_window
                0x0000eca4      0x160 archival/lib.a(gzip.o)
 .text.init_block
                0x0000ee04       0xec archival/lib.a(gzip.o)
 .text.pqdownheap
                0x0000eef0      0x19c archival/lib.a(gzip.o)
 .text.gen_codes
                0x0000f08c       0xd8 archival/lib.a(gzip.o)
 .text.build_tree
                0x0000f164      0x700 archival/lib.a(gzip.o)
 .text.scan_tree
                0x0000f864      0x1d8 archival/lib.a(gzip.o)
 .text.send_tree
                0x0000fa3c      0x200 archival/lib.a(gzip.o)
 .text.ct_tally
                0x0000fc3c      0x274 archival/lib.a(gzip.o)
 .text.compress_block
                0x0000feb0      0x1d8 archival/lib.a(gzip.o)
 .text.flush_block
                0x00010088      0x2e0 archival/lib.a(gzip.o)
 .text.make_new_name_gzip
                0x00010368       0x10 archival/lib.a(gzip.o)
 .text.pack_gzip
                0x00010378      0xa24 archival/lib.a(gzip.o)
 .text.gzip_main
                0x00010d9c      0x1b4 archival/lib.a(gzip.o)
                0x00010d9c                gzip_main
 .text.bsearch_rpmtag
                0x00010f50       0x14 archival/lib.a(rpm.o)
 .text.rpm_getint
                0x00010f64       0xe0 archival/lib.a(rpm.o)
 .text.rpm_getstr
                0x00011044       0xd4 archival/lib.a(rpm.o)
 .text.loop_through_files
                0x00011118       0x90 archival/lib.a(rpm.o)
 .text.rpm_main
                0x000111a8      0x8cc archival/lib.a(rpm.o)
                0x000111a8                rpm_main
 .text.fileaction_dobackup
                0x00011a74       0x88 archival/lib.a(rpm.o)
 .text.fileaction_setowngrp
                0x00011afc       0x44 archival/lib.a(rpm.o)
 .text.skip_header
                0x00011b40       0xc4 archival/lib.a(rpm2cpio.o)
 .text.rpm2cpio_main
                0x00011c04      0x174 archival/lib.a(rpm2cpio.o)
                0x00011c04                rpm2cpio_main
 .text.putOctal
                0x00011d78       0x60 archival/lib.a(tar.o)
 .text.chksum_and_xwrite
                0x00011dd8       0x78 archival/lib.a(tar.o)
 .text.writeLongname
                0x00011e50      0x108 archival/lib.a(tar.o)
 .text.writeFileToTarball
                0x00011f58      0x694 archival/lib.a(tar.o)
 .text.writeTarFile
                0x000125ec      0x2ec archival/lib.a(tar.o)
 .text.append_file_list_to_list
                0x000128d8       0x8c archival/lib.a(tar.o)
 .text.get_header_tar_Z
                0x00012964       0x84 archival/lib.a(tar.o)
 .text.tar_main
                0x000129e8      0x3a8 archival/lib.a(tar.o)
                0x000129e8                tar_main
 .text.unzip_skip
                0x00012d90       0x68 archival/lib.a(unzip.o)
 .text.unzip_create_leading_dirs
                0x00012df8       0x3c archival/lib.a(unzip.o)
 .text.unzip_main
                0x00012e34      0x90c archival/lib.a(unzip.o)
                0x00012e34                unzip_main
 .text.check_header_gzip_or_die
                0x00013740       0xcc archival/libunarchive/lib.a(check_header_gzip.o)
                0x00013740                check_header_gzip_or_die
 .text.data_extract_all
                0x0001380c      0x33c archival/libunarchive/lib.a(data_extract_all.o)
                0x0001380c                data_extract_all
 .text.data_extract_to_stdout
                0x00013b48       0x18 archival/libunarchive/lib.a(data_extract_to_stdout.o)
                0x00013b48                data_extract_to_stdout
 .text.data_skip
                0x00013b60       0x18 archival/libunarchive/lib.a(data_skip.o)
                0x00013b60                data_skip
 .text.get_bits
                0x00013b78       0xdc archival/libunarchive/lib.a(decompress_bunzip2.o)
 .text.get_next_block
                0x00013c54      0x80c archival/libunarchive/lib.a(decompress_bunzip2.o)
 .text.read_bunzip
                0x00014460      0x174 archival/libunarchive/lib.a(decompress_bunzip2.o)
                0x00014460                read_bunzip
 .text.start_bunzip
                0x000145d4       0xf0 archival/libunarchive/lib.a(decompress_bunzip2.o)
                0x000145d4                start_bunzip
 .text.dealloc_bunzip
                0x000146c4       0x1c archival/libunarchive/lib.a(decompress_bunzip2.o)
                0x000146c4                dealloc_bunzip
 .text.unpack_bz2_stream
                0x000146e0       0xd4 archival/libunarchive/lib.a(decompress_bunzip2.o)
                0x000146e0                unpack_bz2_stream
 .text.uncompress
                0x000147b4      0x4c0 archival/libunarchive/lib.a(decompress_uncompress.o)
                0x000147b4                uncompress
 .text.rc_read  0x00014c74       0x40 archival/libunarchive/lib.a(decompress_unlzma.o)
 .text.rc_do_normalize
                0x00014cb4       0x3c archival/libunarchive/lib.a(decompress_unlzma.o)
 .text.rc_get_bit
                0x00014cf0       0xb4 archival/libunarchive/lib.a(decompress_unlzma.o)
 .text.unpack_lzma_stream
                0x00014da4      0xc28 archival/libunarchive/lib.a(decompress_unlzma.o)
                0x00014da4                unpack_lzma_stream
 .text.alloc_state
                0x000159cc       0x28 archival/libunarchive/lib.a(decompress_unzip.o)
 .text.fill_bitbuffer
                0x000159f4       0xa4 archival/libunarchive/lib.a(decompress_unzip.o)
 .text.huft_free
                0x00015a98       0x28 archival/libunarchive/lib.a(decompress_unzip.o)
 .text.huft_build
                0x00015ac0      0x5f4 archival/libunarchive/lib.a(decompress_unzip.o)
 .text.inflate_codes_setup
                0x000160b4       0x6c archival/libunarchive/lib.a(decompress_unzip.o)
 .text.calculate_gunzip_crc
                0x00016120       0x58 archival/libunarchive/lib.a(decompress_unzip.o)
 .text.inflate_unzip_internal
                0x00016178      0xd18 archival/libunarchive/lib.a(decompress_unzip.o)
 .text.inflate_unzip
                0x00016e90       0x64 archival/libunarchive/lib.a(decompress_unzip.o)
                0x00016e90                inflate_unzip
 .text.unpack_gz_stream
                0x00016ef4      0x11c archival/libunarchive/lib.a(decompress_unzip.o)
                0x00016ef4                unpack_gz_stream
 .text.filter_accept_list
                0x00017010       0x20 archival/libunarchive/lib.a(filter_accept_list.o)
                0x00017010                filter_accept_list
 .text.filter_accept_reject_list
                0x00017030       0x54 archival/libunarchive/lib.a(filter_accept_reject_list.o)
                0x00017030                filter_accept_reject_list
 .text.find_list_entry
                0x00017084       0x44 archival/libunarchive/lib.a(find_list_entry.o)
                0x00017084                find_list_entry
 .text.find_list_entry2
                0x000170c8       0xcc archival/libunarchive/lib.a(find_list_entry.o)
                0x000170c8                find_list_entry2
 .text.get_header_ar
                0x00017194      0x2d0 archival/libunarchive/lib.a(get_header_ar.o)
                0x00017194                get_header_ar
 .text.get_header_cpio
                0x00017464      0x438 archival/libunarchive/lib.a(get_header_cpio.o)
                0x00017464                get_header_cpio
 .text.getOctal
                0x0001789c       0x4c archival/libunarchive/lib.a(get_header_tar.o)
 .text.get_header_tar
                0x000178e8      0x600 archival/libunarchive/lib.a(get_header_tar.o)
                0x000178e8                get_header_tar
 .text.get_header_tar_bz2
                0x00017ee8       0x50 archival/libunarchive/lib.a(get_header_tar_bz2.o)
                0x00017ee8                get_header_tar_bz2
 .text.get_header_tar_gz
                0x00017f38       0x94 archival/libunarchive/lib.a(get_header_tar_gz.o)
                0x00017f38                get_header_tar_gz
 .text.get_header_tar_lzma
                0x00017fcc       0x50 archival/libunarchive/lib.a(get_header_tar_lzma.o)
                0x00017fcc                get_header_tar_lzma
 .text.header_list
                0x0001801c        0x8 archival/libunarchive/lib.a(header_list.o)
                0x0001801c                header_list
 .text.header_verbose_list
                0x00018024       0xb0 archival/libunarchive/lib.a(header_verbose_list.o)
                0x00018024                header_verbose_list
 .text.init_handle
                0x000180d4       0x54 archival/libunarchive/lib.a(init_handle.o)
                0x000180d4                init_handle
 .text.open_transformer
                0x00018128       0x7c archival/libunarchive/lib.a(open_transformer.o)
                0x00018128                open_transformer
 .text.seek_by_jump
                0x000181a4       0x68 archival/libunarchive/lib.a(seek_by_jump.o)
                0x000181a4                seek_by_jump
 .text.seek_by_read
                0x0001820c       0x18 archival/libunarchive/lib.a(seek_by_read.o)
                0x0001820c                seek_by_read
 .text.archive_xread_all_eof
                0x00018224       0x30 archival/libunarchive/lib.a(archive_xread_all_eof.o)
                0x00018224                archive_xread_all_eof
 .text.data_align
                0x00018254       0x74 archival/libunarchive/lib.a(data_align.o)
                0x00018254                data_align
 .text.filter_accept_all
                0x000182c8       0x14 archival/libunarchive/lib.a(filter_accept_all.o)
                0x000182c8                filter_accept_all
 .text.header_skip
                0x000182dc        0x4 archival/libunarchive/lib.a(header_skip.o)
                0x000182dc                header_skip
 .text.chvt_main
                0x000182e0       0x6c console-tools/lib.a(chvt.o)
                0x000182e0                chvt_main
 .text.clear_main
                0x0001834c       0x1c console-tools/lib.a(clear.o)
                0x0001834c                clear_main
 .text.deallocvt_main
                0x00018368       0x5c console-tools/lib.a(deallocvt.o)
                0x00018368                deallocvt_main
 .text.dumpkmap_main
                0x000183c4      0x120 console-tools/lib.a(dumpkmap.o)
                0x000183c4                dumpkmap_main
 .text.do_loadfont
                0x000184e4       0xdc console-tools/lib.a(loadfont.o)
 .text.loadfont_main
                0x000185c0      0x224 console-tools/lib.a(loadfont.o)
                0x000185c0                loadfont_main
 .text.loadkmap_main
                0x000187e4       0xf8 console-tools/lib.a(loadkmap.o)
                0x000187e4                loadkmap_main
 .text.openvt_main
                0x000188dc       0x80 console-tools/lib.a(openvt.o)
                0x000188dc                openvt_main
 .text.reset_main
                0x0001895c       0x24 console-tools/lib.a(reset.o)
                0x0001895c                reset_main
 .text.onintr   0x00018980       0x20 console-tools/lib.a(resize.o)
 .text.resize_main
                0x000189a0      0x150 console-tools/lib.a(resize.o)
                0x000189a0                resize_main
 .text.setconsole_main
                0x00018af0       0xa4 console-tools/lib.a(setconsole.o)
                0x00018af0                setconsole_main
 .text.setkeycodes_main
                0x00018b94       0xc8 console-tools/lib.a(setkeycodes.o)
                0x00018b94                setkeycodes_main
 .text.setlogcons_main
                0x00018c5c       0x6c console-tools/lib.a(setlogcons.o)
                0x00018c5c                setlogcons_main
 .text.basename_main
                0x00018cc8       0x80 coreutils/lib.a(basename.o)
                0x00018cc8                basename_main
 .text.leap_year
                0x00018d48       0x64 coreutils/lib.a(cal.o)
 .text.day_array
                0x00018dac      0x198 coreutils/lib.a(cal.o)
 .text.blank_string
                0x00018f44       0x28 coreutils/lib.a(cal.o)
 .text.build_row
                0x00018f6c       0xcc coreutils/lib.a(cal.o)
 .text.trim_trailing_spaces_and_print
                0x00019038       0x54 coreutils/lib.a(cal.o)
 .text.center   0x0001908c       0x54 coreutils/lib.a(cal.o)
 .text.cal_main
                0x000190e0      0x3e8 coreutils/lib.a(cal.o)
                0x000190e0                cal_main
 .text.bb_cat   0x000194c8       0x94 coreutils/lib.a(cat.o)
                0x000194c8                bb_cat
 .text.cat_main
                0x0001955c       0x30 coreutils/lib.a(cat.o)
                0x0001955c                cat_main
 .text.catv_main
                0x0001958c      0x140 coreutils/lib.a(catv.o)
                0x0001958c                catv_main
 .text.chgrp_main
                0x000196cc       0x5c coreutils/lib.a(chgrp.o)
                0x000196cc                chgrp_main
 .text.fileAction
                0x00019728       0xa8 coreutils/lib.a(chmod.o)
 .text.chmod_main
                0x000197d0       0xf4 coreutils/lib.a(chmod.o)
                0x000197d0                chmod_main
 .text.fileAction
                0x000198c4       0x68 coreutils/lib.a(chown.o)
 .text.chown_main
                0x0001992c       0xc4 coreutils/lib.a(chown.o)
                0x0001992c                chown_main
 .text.chroot_main
                0x000199f0       0x94 coreutils/lib.a(chroot.o)
                0x000199f0                chroot_main
 .text.cksum_main
                0x00019a84      0x11c coreutils/lib.a(cksum.o)
                0x00019a84                cksum_main
 .text.writeline
                0x00019ba0       0x70 coreutils/lib.a(comm.o)
 .text.comm_main
                0x00019c10      0x278 coreutils/lib.a(comm.o)
                0x00019c10                comm_main
 .text.cp_main  0x00019e88      0x12c coreutils/lib.a(cp.o)
                0x00019e88                cp_main
 .text.cmpfunc  0x00019fb4       0x10 coreutils/lib.a(cut.o)
 .text.cut_file
                0x00019fc4      0x2b8 coreutils/lib.a(cut.o)
 .text.cut_main
                0x0001a27c      0x29c coreutils/lib.a(cut.o)
                0x0001a27c                cut_main
 .text.maybe_set_utc
                0x0001a518       0x14 coreutils/lib.a(date.o)
 .text.date_main
                0x0001a52c      0x508 coreutils/lib.a(date.o)
                0x0001a52c                date_main
 .text.dd_output_status
                0x0001aa34       0x5c coreutils/lib.a(dd.o)
 .text.full_write_or_warn
                0x0001aa90       0x28 coreutils/lib.a(dd.o)
 .text.write_and_stats
                0x0001aab8       0x5c coreutils/lib.a(dd.o)
 .text.dd_main  0x0001ab14      0x670 coreutils/lib.a(dd.o)
                0x0001ab14                dd_main
 .text.df_main  0x0001b184      0x31c coreutils/lib.a(df.o)
                0x0001b184                df_main
 .text.dirname_main
                0x0001b4a0       0x2c coreutils/lib.a(dirname.o)
                0x0001b4a0                dirname_main
 .text.dos2unix_main
                0x0001b4cc      0x1d8 coreutils/lib.a(dos2unix.o)
                0x0001b4cc                dos2unix_main
 .text.print    0x0001b6a4       0x38 coreutils/lib.a(du.o)
 .text.du       0x0001b6dc      0x228 coreutils/lib.a(du.o)
 .text.du_main  0x0001b904      0x19c coreutils/lib.a(du.o)
                0x0001b904                du_main
 .text.bb_echo  0x0001baa0      0x158 coreutils/lib.a(echo.o)
                0x0001baa0                bb_echo
 .text.echo_main
                0x0001bbf8        0x8 coreutils/lib.a(echo.o)
                0x0001bbf8                echo_main
 .text.env_main
                0x0001bc00      0x170 coreutils/lib.a(env.o)
                0x0001bc00                env_main
 .text.xputchar
                0x0001bd70       0x20 coreutils/lib.a(expand.o)
 .text.expand_main
                0x0001bd90      0x380 coreutils/lib.a(expand.o)
                0x0001bd90                expand_main
 .text.int_value
                0x0001c110       0x24 coreutils/lib.a(expr.o)
 .text.str_value
                0x0001c134       0x30 coreutils/lib.a(expr.o)
 .text.freev    0x0001c164       0x24 coreutils/lib.a(expr.o)
 .text.null     0x0001c188       0x50 coreutils/lib.a(expr.o)
 .text.tostring
                0x0001c1d8       0x34 coreutils/lib.a(expr.o)
 .text.toarith  0x0001c20c       0x6c coreutils/lib.a(expr.o)
 .text.nextarg  0x0001c278       0x3c coreutils/lib.a(expr.o)
 .text.arithmetic_common
                0x0001c2b4       0xb0 coreutils/lib.a(expr.o)
 .text.docolon  0x0001c364      0x10c coreutils/lib.a(expr.o)
 .text.eval1    0x0001c470       0x90 coreutils/lib.a(expr.o)
 .text.eval     0x0001c500       0x70 coreutils/lib.a(expr.o)
 .text.eval6    0x0001c570      0x2d4 coreutils/lib.a(expr.o)
 .text.eval5    0x0001c844       0x6c coreutils/lib.a(expr.o)
 .text.eval4    0x0001c8b0       0xb0 coreutils/lib.a(expr.o)
 .text.eval3    0x0001c960       0x98 coreutils/lib.a(expr.o)
 .text.eval2    0x0001c9f8      0x1bc coreutils/lib.a(expr.o)
 .text.expr_main
                0x0001cbb4       0x7c coreutils/lib.a(expr.o)
                0x0001cbb4                expr_main
 .text.false_main
                0x0001cc30        0x8 coreutils/lib.a(false.o)
                0x0001cc30                false_main
 .text.adjust_column
                0x0001cc38       0x58 coreutils/lib.a(fold.o)
 .text.fold_main
                0x0001cc90      0x2e0 coreutils/lib.a(fold.o)
                0x0001cc90                fold_main
 .text.head_main
                0x0001cf70      0x1bc coreutils/lib.a(head.o)
                0x0001cf70                head_main
 .text.hostid_main
                0x0001d12c       0x34 coreutils/lib.a(hostid.o)
                0x0001d12c                hostid_main
 .text.printf_full
                0x0001d160       0x38 coreutils/lib.a(id.o)
 .text.id_main  0x0001d198      0x16c coreutils/lib.a(id.o)
                0x0001d198                id_main
 .text.install_main
                0x0001d304      0x31c coreutils/lib.a(install.o)
                0x0001d304                install_main
 .text.length_main
                0x0001d620       0x4c coreutils/lib.a(length.o)
                0x0001d620                length_main
 .text.ln_main  0x0001d66c      0x210 coreutils/lib.a(ln.o)
                0x0001d66c                ln_main
 .text.logname_main
                0x0001d87c       0x50 coreutils/lib.a(logname.o)
                0x0001d87c                logname_main
 .text.my_stat  0x0001d8cc       0xc4 coreutils/lib.a(ls.o)
 .text.fgcolor  0x0001d990       0x50 coreutils/lib.a(ls.o)
 .text.bgcolor  0x0001d9e0       0x30 coreutils/lib.a(ls.o)
 .text.append_char
                0x0001da10       0x60 coreutils/lib.a(ls.o)
 .text.count_dirs
                0x0001da70       0x80 coreutils/lib.a(ls.o)
 .text.dnalloc  0x0001daf0       0x14 coreutils/lib.a(ls.o)
 .text.dfree    0x0001db04       0x4c coreutils/lib.a(ls.o)
 .text.splitdnarray
                0x0001db50       0xdc coreutils/lib.a(ls.o)
 .text.sortcmp  0x0001dc2c       0xb8 coreutils/lib.a(ls.o)
 .text.dnsort   0x0001dce4       0x10 coreutils/lib.a(ls.o)
 .text.showfiles
                0x0001dcf4      0x678 coreutils/lib.a(ls.o)
 .text.showdirs
                0x0001e36c      0x264 coreutils/lib.a(ls.o)
 .text.ls_main  0x0001e5d0      0x474 coreutils/lib.a(ls.o)
                0x0001e5d0                ls_main
 .text.hash_file
                0x0001ea44      0x124 coreutils/lib.a(md5_sha1_sum.o)
 .text.md5_sha1_sum_main
                0x0001eb68      0x25c coreutils/lib.a(md5_sha1_sum.o)
                0x0001eb68                md5_sha1_sum_main
 .text.mkdir_main
                0x0001edc4       0xd0 coreutils/lib.a(mkdir.o)
                0x0001edc4                mkdir_main
 .text.mkfifo_main
                0x0001ee94       0x64 coreutils/lib.a(mkfifo.o)
                0x0001ee94                mkfifo_main
 .text.mknod_main
                0x0001eef8      0x108 coreutils/lib.a(mknod.o)
                0x0001eef8                mknod_main
 .text.mv_main  0x0001f000      0x248 coreutils/lib.a(mv.o)
                0x0001f000                mv_main
 .text.nice_main
                0x0001f248      0x104 coreutils/lib.a(nice.o)
                0x0001f248                nice_main
 .text.nohup_main
                0x0001f34c      0x134 coreutils/lib.a(nohup.o)
                0x0001f34c                nohup_main
 .text.od_main  0x0001f480      0x308 coreutils/lib.a(od.o)
                0x0001f480                od_main
 .text.printenv_main
                0x0001f788       0x78 coreutils/lib.a(printenv.o)
                0x0001f788                printenv_main
 .text.multiconvert
                0x0001f800       0x80 coreutils/lib.a(printf.o)
 .text.conv_strtoul
                0x0001f880       0x1c coreutils/lib.a(printf.o)
 .text.conv_strtol
                0x0001f89c       0x1c coreutils/lib.a(printf.o)
 .text.conv_strtod
                0x0001f8b8       0x40 coreutils/lib.a(printf.o)
 .text.my_xstrtoul
                0x0001f8f8       0x24 coreutils/lib.a(printf.o)
 .text.my_xstrtol
                0x0001f91c       0x24 coreutils/lib.a(printf.o)
 .text.my_xstrtod
                0x0001f940       0x24 coreutils/lib.a(printf.o)
 .text.print_direc
                0x0001f964      0x280 coreutils/lib.a(printf.o)
 .text.printf_main
                0x0001fbe4      0x2f0 coreutils/lib.a(printf.o)
                0x0001fbe4                printf_main
 .text.pwd_main
                0x0001fed4       0x38 coreutils/lib.a(pwd.o)
                0x0001fed4                pwd_main
 .text.readlink_main
                0x0001ff0c       0x90 coreutils/lib.a(readlink.o)
                0x0001ff0c                readlink_main
 .text.realpath_main
                0x0001ff9c       0x5c coreutils/lib.a(realpath.o)
                0x0001ff9c                realpath_main
 .text.rm_main  0x0001fff8       0xe8 coreutils/lib.a(rm.o)
                0x0001fff8                rm_main
 .text.rmdir_main
                0x000200e0       0xbc coreutils/lib.a(rmdir.o)
                0x000200e0                rmdir_main
 .text.seq_main
                0x0002019c      0x13c coreutils/lib.a(seq.o)
                0x0002019c                seq_main
 .text.sleep_main
                0x000202d8       0x50 coreutils/lib.a(sleep.o)
                0x000202d8                sleep_main
 .text.get_key  0x00020328      0x2c8 coreutils/lib.a(sort.o)
 .text.add_key  0x000205f0       0x2c coreutils/lib.a(sort.o)
 .text.compare_keys
                0x0002061c      0x3f0 coreutils/lib.a(sort.o)
 .text.str2u    0x00020a0c       0x3c coreutils/lib.a(sort.o)
 .text.sort_main
                0x00020a48      0x470 coreutils/lib.a(sort.o)
                0x00020a48                sort_main
 .text.split_main
                0x00020eb8      0x2b8 coreutils/lib.a(split.o)
                0x00020eb8                split_main
 .text.human_time
                0x00021170       0x44 coreutils/lib.a(stat.o)
 .text.print_statfs
                0x000211b4      0x1e4 coreutils/lib.a(stat.o)
 .text.print_stat
                0x00021398      0x4b4 coreutils/lib.a(stat.o)
 .text.print_it
                0x0002184c      0x114 coreutils/lib.a(stat.o)
 .text.do_statfs
                0x00021960       0x90 coreutils/lib.a(stat.o)
 .text.do_stat  0x000219f0       0xcc coreutils/lib.a(stat.o)
 .text.stat_main
                0x00021abc       0xa4 coreutils/lib.a(stat.o)
                0x00021abc                stat_main
 .text.mode_type_flag
                0x00021b60       0x1c coreutils/lib.a(stty.o)
 .text.set_speed_or_die
                0x00021b7c       0x44 coreutils/lib.a(stty.o)
 .text.perror_on_device_and_die
                0x00021bc0       0x10 coreutils/lib.a(stty.o)
 .text.perror_on_device
                0x00021bd0       0x10 coreutils/lib.a(stty.o)
 .text.wrapf    0x00021be0       0xd8 coreutils/lib.a(stty.o)
 .text.set_window_size
                0x00021cb8       0xac coreutils/lib.a(stty.o)
 .text.display_window_size
                0x00021d64       0x84 coreutils/lib.a(stty.o)
 .text.find_mode
                0x00021de8       0x4c coreutils/lib.a(stty.o)
 .text.find_control
                0x00021e34       0x4c coreutils/lib.a(stty.o)
 .text.find_param
                0x00021e80       0x38 coreutils/lib.a(stty.o)
 .text.recover_mode
                0x00021eb8       0xcc coreutils/lib.a(stty.o)
 .text.display_recoverable
                0x00021f84       0x50 coreutils/lib.a(stty.o)
 .text.display_speed
                0x00021fd4       0x78 coreutils/lib.a(stty.o)
 .text.do_display
                0x0002204c      0x244 coreutils/lib.a(stty.o)
 .text.set_mode
                0x00022290      0x428 coreutils/lib.a(stty.o)
 .text.set_control_char_or_die
                0x000226b8       0xd4 coreutils/lib.a(stty.o)
 .text.stty_main
                0x0002278c      0x588 coreutils/lib.a(stty.o)
                0x0002278c                stty_main
 .text.sum_file
                0x00022d14      0x1a0 coreutils/lib.a(sum.o)
 .text.sum_main
                0x00022eb4       0xb8 coreutils/lib.a(sum.o)
                0x00022eb4                sum_main
 .text.sync_main
                0x00022f6c       0x18 coreutils/lib.a(sync.o)
                0x00022f6c                sync_main
 .text.tail_xprint_header
                0x00022f84       0x20 coreutils/lib.a(tail.o)
 .text.tail_read
                0x00022fa4       0xc0 coreutils/lib.a(tail.o)
 .text.eat_num  0x00023064       0x34 coreutils/lib.a(tail.o)
 .text.tail_main
                0x00023098      0x4bc coreutils/lib.a(tail.o)
                0x00023098                tail_main
 .text.tee_main
                0x00023554      0x158 coreutils/lib.a(tee.o)
                0x00023554                tee_main
 .text.t_lex    0x000236ac       0x68 coreutils/lib.a(test.o)
 .text.syntax   0x00023714       0x4c coreutils/lib.a(test.o)
 .text.getn     0x00023760       0x80 coreutils/lib.a(test.o)
 .text.binop    0x000237e0      0x2c0 coreutils/lib.a(test.o)
 .text.nexpr    0x00023aa0      0x43c coreutils/lib.a(test.o)
 .text.aexpr    0x00023edc       0x7c coreutils/lib.a(test.o)
 .text.oexpr    0x00023f58       0x80 coreutils/lib.a(test.o)
 .text.test_main
                0x00023fd8      0x230 coreutils/lib.a(test.o)
                0x00023fd8                test_main
 .text.touch_main
                0x00024208       0xbc coreutils/lib.a(touch.o)
                0x00024208                touch_main
 .text.expand   0x000242c4      0x2a0 coreutils/lib.a(tr.o)
 .text.tr_main  0x00024564      0x32c coreutils/lib.a(tr.o)
                0x00024564                tr_main
 .text.true_main
                0x00024890        0x8 coreutils/lib.a(true.o)
                0x00024890                true_main
 .text.tty_main
                0x00024898       0x6c coreutils/lib.a(tty.o)
                0x00024898                tty_main
 .text.uname_main
                0x00024904       0xc8 coreutils/lib.a(uname.o)
                0x00024904                uname_main
 .text.xgetoptfile_uniq_s
                0x000249cc       0x5c coreutils/lib.a(uniq.o)
 .text.uniq_main
                0x00024a28      0x1e0 coreutils/lib.a(uniq.o)
                0x00024a28                uniq_main
 .text.usleep_main
                0x00024c08       0x24 coreutils/lib.a(usleep.o)
                0x00024c08                usleep_main
 .text.read_stduu
                0x00024c2c      0x128 coreutils/lib.a(uudecode.o)
 .text.read_base64
                0x00024d54      0x118 coreutils/lib.a(uudecode.o)
 .text.uudecode_main
                0x00024e6c      0x1a4 coreutils/lib.a(uudecode.o)
                0x00024e6c                uudecode_main
 .text.uuencode_main
                0x00025010      0x18c coreutils/lib.a(uuencode.o)
                0x00025010                uuencode_main
 .text.wc_main  0x0002519c      0x338 coreutils/lib.a(wc.o)
                0x0002519c                wc_main
 .text.who_main
                0x000254d4      0x13c coreutils/lib.a(who.o)
                0x000254d4                who_main
 .text.whoami_main
                0x00025610       0x38 coreutils/lib.a(whoami.o)
                0x00025610                whoami_main
 .text.yes_main
                0x00025648       0x64 coreutils/lib.a(yes.o)
                0x00025648                yes_main
 .text.cp_mv_stat2
                0x000256ac       0x6c coreutils/libcoreutils/lib.a(cp_mv_stat.o)
                0x000256ac                cp_mv_stat2
 .text.cp_mv_stat
                0x00025718        0xc coreutils/libcoreutils/lib.a(cp_mv_stat.o)
                0x00025718                cp_mv_stat
 .text.getopt_mk_fifo_nod
                0x00025724       0x5c coreutils/libcoreutils/lib.a(getopt_mk_fifo_nod.o)
                0x00025724                getopt_mk_fifo_nod
 .text.mktemp_main
                0x00025780       0xc0 debianutils/lib.a(mktemp.o)
                0x00025780                mktemp_main
 .text.pipe_progress_main
                0x00025840       0xa0 debianutils/lib.a(pipe_progress.o)
                0x00025840                pipe_progress_main
 .text.act      0x000258e0      0x114 debianutils/lib.a(run_parts.o)
 .text.run_parts_main
                0x000259f4      0x100 debianutils/lib.a(run_parts.o)
                0x000259f4                run_parts_main
 .text.check    0x00025af4      0x18c debianutils/lib.a(start_stop_daemon.o)
 .text.do_procinit
                0x00025c80       0xf0 debianutils/lib.a(start_stop_daemon.o)
 .text.start_stop_daemon_main
                0x00025d70      0x3a0 debianutils/lib.a(start_stop_daemon.o)
                0x00025d70                start_stop_daemon_main
 .text.which_main
                0x00026110       0x9c debianutils/lib.a(which.o)
                0x00026110                which_main
 .text.change_attributes
                0x000261ac      0x154 e2fsprogs/lib.a(chattr.o)
 .text.chattr_dir_proc
                0x00026300       0x30 e2fsprogs/lib.a(chattr.o)
 .text.chattr_main
                0x00026330      0x1a4 e2fsprogs/lib.a(chattr.o)
                0x00026330                chattr_main
 .text.close_silently
                0x000264d4       0x20 e2fsprogs/lib.a(e2fs_lib.o)
 .text.iterate_on_dir
                0x000264f4       0xbc e2fsprogs/lib.a(e2fs_lib.o)
                0x000264f4                iterate_on_dir
 .text.fgetsetversion
                0x000265b0       0x64 e2fsprogs/lib.a(e2fs_lib.o)
                0x000265b0                fgetsetversion
 .text.fgetsetflags
                0x00026614       0xb4 e2fsprogs/lib.a(e2fs_lib.o)
                0x00026614                fgetsetflags
 .text.print_flags
                0x000266c8       0xc8 e2fsprogs/lib.a(e2fs_lib.o)
                0x000266c8                print_flags
 .text.base_device
                0x00026790      0x100 e2fsprogs/lib.a(fsck.o)
 .text.free_instance
                0x00026890       0x2c e2fsprogs/lib.a(fsck.o)
 .text.create_fs_device
                0x000268bc       0xa0 e2fsprogs/lib.a(fsck.o)
 .text.parse_word
                0x0002695c       0x48 e2fsprogs/lib.a(fsck.o)
 .text.parse_escape
                0x000269a4       0x68 e2fsprogs/lib.a(fsck.o)
 .text.kill_all_if_cancel_requested
                0x00026a0c       0x68 e2fsprogs/lib.a(fsck.o)
 .text.wait_one
                0x00026a74      0x1d0 e2fsprogs/lib.a(fsck.o)
 .text.wait_many
                0x00026c44       0x40 e2fsprogs/lib.a(fsck.o)
 .text.fsck_device
                0x00026c84      0x308 e2fsprogs/lib.a(fsck.o)
 .text.opt_in_list
                0x00026f8c       0x64 e2fsprogs/lib.a(fsck.o)
 .text.ignore   0x00026ff0      0x108 e2fsprogs/lib.a(fsck.o)
 .text.check_all
                0x000270f8      0x330 e2fsprogs/lib.a(fsck.o)
 .text.signal_cancel
                0x00027428       0x14 e2fsprogs/lib.a(fsck.o)
 .text.fsck_main
                0x0002743c      0x914 e2fsprogs/lib.a(fsck.o)
                0x0002743c                fsck_main
 .text.list_attributes
                0x00027d50       0xd8 e2fsprogs/lib.a(lsattr.o)
 .text.lsattr_dir_proc
                0x00027e28       0xf8 e2fsprogs/lib.a(lsattr.o)
 .text.lsattr_args
                0x00027f20       0x7c e2fsprogs/lib.a(lsattr.o)
 .text.lsattr_main
                0x00027f9c       0x5c e2fsprogs/lib.a(lsattr.o)
                0x00027f9c                lsattr_main
 .text.zero_out_var
                0x00027ff8        0xc editors/lib.a(awk.o)
 .text.syntax_error
                0x00028004       0x24 editors/lib.a(awk.o)
 .text.hashidx  0x00028028       0x2c editors/lib.a(awk.o)
 .text.hash_init
                0x00028054       0x2c editors/lib.a(awk.o)
 .text.hash_search
                0x00028080       0x58 editors/lib.a(awk.o)
 .text.hash_find
                0x000280d8      0x138 editors/lib.a(awk.o)
 .text.hash_remove
                0x00028210       0x94 editors/lib.a(awk.o)
 .text.skip_spaces
                0x000282a4       0x58 editors/lib.a(awk.o)
 .text.nextword
                0x000282fc       0x20 editors/lib.a(awk.o)
 .text.nextchar
                0x0002831c       0x44 editors/lib.a(awk.o)
 .text.afopen   0x00028360       0x28 editors/lib.a(awk.o)
 .text.iamarray
                0x00028388       0x3c editors/lib.a(awk.o)
 .text.clear_array
                0x000283c4       0x70 editors/lib.a(awk.o)
 .text.clrvar   0x00028434       0x40 editors/lib.a(awk.o)
 .text.getvar_i
                0x00028474       0xb8 editors/lib.a(awk.o)
 .text.is_numeric
                0x0002852c       0x24 editors/lib.a(awk.o)
 .text.istrue   0x00028550       0x5c editors/lib.a(awk.o)
 .text.nvalloc  0x000285ac      0x10c editors/lib.a(awk.o)
 .text.nvfree   0x000286b8       0xf8 editors/lib.a(awk.o)
 .text.next_token
                0x000287b0      0x49c editors/lib.a(awk.o)
 .text.rollback_token
                0x00028c4c       0x18 editors/lib.a(awk.o)
 .text.new_node
                0x00028c64       0x2c editors/lib.a(awk.o)
 .text.mk_re_node
                0x00028c90       0x4c editors/lib.a(awk.o)
 .text.chain_node
                0x00028cdc       0x8c editors/lib.a(awk.o)
 .text.mk_splitter
                0x00028d68       0x60 editors/lib.a(awk.o)
 .text.qrealloc
                0x00028dc8       0x40 editors/lib.a(awk.o)
 .text.fsrealloc
                0x00028e08       0xd4 editors/lib.a(awk.o)
 .text.nextarg  0x00028edc       0x38 editors/lib.a(awk.o)
 .text.fmt_num  0x00028f14      0x11c editors/lib.a(awk.o)
 .text.getvar_s
                0x00029030       0x88 editors/lib.a(awk.o)
 .text.handle_special
                0x000290b8      0x1d8 editors/lib.a(awk.o)
 .text.setvar_p
                0x00029290       0x24 editors/lib.a(awk.o)
 .text.setvar_s
                0x000292b4       0x3c editors/lib.a(awk.o)
 .text.setvar_u
                0x000292f0       0x20 editors/lib.a(awk.o)
 .text.setari_u
                0x00029310       0x48 editors/lib.a(awk.o)
 .text.setvar_i
                0x00029358       0x34 editors/lib.a(awk.o)
 .text.parse_expr
                0x0002938c      0x330 editors/lib.a(awk.o)
 .text.condition
                0x000296bc       0x18 editors/lib.a(awk.o)
 .text.chain_expr
                0x000296d4       0x38 editors/lib.a(awk.o)
 .text.chain_group
                0x0002970c      0x2e0 editors/lib.a(awk.o)
 .text.parse_program
                0x000299ec      0x180 editors/lib.a(awk.o)
 .text.chain_loop
                0x00029b6c       0x8c editors/lib.a(awk.o)
 .text.awk_getline
                0x00029bf8      0x2e4 editors/lib.a(awk.o)
 .text.incvar   0x00029edc       0x34 editors/lib.a(awk.o)
 .text.copyvar  0x00029f10       0x60 editors/lib.a(awk.o)
 .text.awk_split
                0x00029f70      0x278 editors/lib.a(awk.o)
 .text.split_f0
                0x0002a1e8       0xd8 editors/lib.a(awk.o)
 .text.is_assignment
                0x0002a2c0       0xc8 editors/lib.a(awk.o)
 .text.next_input_file
                0x0002a388      0x128 editors/lib.a(awk.o)
 .text.evaluate
                0x0002a4b0     0x18e8 editors/lib.a(awk.o)
 .text.as_regex
                0x0002bd98       0x88 editors/lib.a(awk.o)
 .text.awk_sub  0x0002be20      0x27c editors/lib.a(awk.o)
 .text.awk_printf
                0x0002c09c      0x210 editors/lib.a(awk.o)
 .text.ptest    0x0002c2ac       0x20 editors/lib.a(awk.o)
 .text.awk_exit
                0x0002c2cc       0xac editors/lib.a(awk.o)
 .text.awk_main
                0x0002c378      0x530 editors/lib.a(awk.o)
                0x0002c378                awk_main
 .text.cmp_xfopen_input
                0x0002c8a8       0x14 editors/lib.a(cmp.o)
 .text.cmp_main
                0x0002c8bc      0x1fc editors/lib.a(cmp.o)
                0x0002c8bc                cmp_main
 .text.print_only
                0x0002cab8       0x28 editors/lib.a(diff.o)
 .text.print_status
                0x0002cae0      0x1c0 editors/lib.a(diff.o)
 .text.prepare  0x0002cca0      0x15c editors/lib.a(diff.o)
 .text.isqrt    0x0002cdfc       0x44 editors/lib.a(diff.o)
 .text.newcand  0x0002ce40       0x84 editors/lib.a(diff.o)
 .text.skipline
                0x0002cec4       0x34 editors/lib.a(diff.o)
 .text.sort     0x0002cef8       0xc0 editors/lib.a(diff.o)
 .text.uni_range
                0x0002cfb8       0x38 editors/lib.a(diff.o)
 .text.fetch    0x0002cff0       0xec editors/lib.a(diff.o)
 .text.asciifile
                0x0002d0dc       0x94 editors/lib.a(diff.o)
 .text.dump_unified_vec
                0x0002d170      0x204 editors/lib.a(diff.o)
 .text.change   0x0002d374      0x1b0 editors/lib.a(diff.o)
 .text.diffreg  0x0002d524      0xd74 editors/lib.a(diff.o)
 .text.do_diff  0x0002e298      0x1cc editors/lib.a(diff.o)
 .text.dir_strcmp
                0x0002e464        0xc editors/lib.a(diff.o)
 .text.add_to_dirlist
                0x0002e470       0x50 editors/lib.a(diff.o)
 .text.get_dir  0x0002e4c0      0x10c editors/lib.a(diff.o)
 .text.diff_main
                0x0002e5cc      0x48c editors/lib.a(diff.o)
                0x0002e5cc                diff_main
 .text.findLine
                0x0002ea58       0xe8 editors/lib.a(ed.o)
 .text.setCurNum
                0x0002eb40       0x38 editors/lib.a(ed.o)
 .text.deleteLines
                0x0002eb78      0x114 editors/lib.a(ed.o)
 .text.termEdit
                0x0002ec8c       0xa0 editors/lib.a(ed.o)
 .text.findString
                0x0002ed2c       0x94 editors/lib.a(ed.o)
 .text.insertLine
                0x0002edc0       0xe4 editors/lib.a(ed.o)
 .text.addLines
                0x0002eea4       0xd8 editors/lib.a(ed.o)
 .text.getNum   0x0002ef7c      0x2c4 editors/lib.a(ed.o)
 .text.readLines
                0x0002f240      0x2bc editors/lib.a(ed.o)
 .text.printLines
                0x0002f4fc      0x144 editors/lib.a(ed.o)
 .text.ed_main  0x0002f640      0xcf0 editors/lib.a(ed.o)
                0x0002f640                ed_main
 .text.copy_lines
                0x00030330       0x68 editors/lib.a(patch.o)
 .text.extract_filename
                0x00030398       0x64 editors/lib.a(patch.o)
 .text.file_doesnt_exist
                0x000303fc       0x20 editors/lib.a(patch.o)
 .text.patch_main
                0x0003041c      0x4f4 editors/lib.a(patch.o)
                0x0003041c                patch_main
 .text.cleanup_outname
                0x00030910       0x18 editors/lib.a(sed.o)
 .text.parse_escapes
                0x00030928       0x90 editors/lib.a(sed.o)
 .text.copy_parsing_escapes
                0x000309b8       0x40 editors/lib.a(sed.o)
 .text.index_of_next_unescaped_regexp_delim
                0x000309f8       0xb4 editors/lib.a(sed.o)
 .text.parse_regex_delim
                0x00030aac       0x78 editors/lib.a(sed.o)
 .text.get_address
                0x00030b24       0xe8 editors/lib.a(sed.o)
 .text.parse_file_cmd
                0x00030c0c       0x8c editors/lib.a(sed.o)
 .text.add_cmd  0x00030c98      0x610 editors/lib.a(sed.o)
 .text.pipe_putc
                0x000312a8       0x54 editors/lib.a(sed.o)
 .text.append   0x000312fc       0x1c editors/lib.a(sed.o)
 .text.flush_append
                0x00031318       0x44 editors/lib.a(sed.o)
 .text.add_input_file
                0x0003135c       0x3c editors/lib.a(sed.o)
 .text.get_next_line
                0x00031398       0xcc editors/lib.a(sed.o)
 .text.puts_maybe_newline
                0x00031464       0xac editors/lib.a(sed.o)
 .text.process_files
                0x00031510      0xac4 editors/lib.a(sed.o)
 .text.add_cmd_block
                0x00031fd4       0xa4 editors/lib.a(sed.o)
 .text.sed_main
                0x00032078      0x304 editors/lib.a(sed.o)
                0x00032078                sed_main
 .text.write1   0x0003237c       0x10 editors/lib.a(vi.o)
 .text.file_size
                0x0003238c       0x44 editors/lib.a(vi.o)
 .text.begin_line
                0x000323d0       0x44 editors/lib.a(vi.o)
 .text.end_line
                0x00032414       0x4c editors/lib.a(vi.o)
 .text.clear_to_eol
                0x00032460        0xc editors/lib.a(vi.o)
 .text.count_lines
                0x0003246c       0x6c editors/lib.a(vi.o)
 .text.setops   0x000324d8       0x74 editors/lib.a(vi.o)
 .text.dot_skip_over_ws
                0x0003254c       0x54 editors/lib.a(vi.o)
 .text.show_help
                0x000325a0        0xc editors/lib.a(vi.o)
 .text.standout_start
                0x000325ac        0xc editors/lib.a(vi.o)
 .text.standout_end
                0x000325b8        0xc editors/lib.a(vi.o)
 .text.next_line
                0x000325c4       0x34 editors/lib.a(vi.o)
 .text.find_line
                0x000325f8       0x34 editors/lib.a(vi.o)
 .text.what_reg
                0x0003262c       0x38 editors/lib.a(vi.o)
 .text.next_tabstop
                0x00032664       0x2c editors/lib.a(vi.o)
 .text.end_screen
                0x00032690       0x4c editors/lib.a(vi.o)
 .text.prev_line
                0x000326dc       0x34 editors/lib.a(vi.o)
 .text.dot_left
                0x00032710       0x30 editors/lib.a(vi.o)
 .text.dot_right
                0x00032740       0x34 editors/lib.a(vi.o)
 .text.dot_begin
                0x00032774       0x20 editors/lib.a(vi.o)
 .text.dot_end  0x00032794       0x20 editors/lib.a(vi.o)
 .text.move_to_col
                0x000327b4       0x7c editors/lib.a(vi.o)
 .text.dot_next
                0x00032830       0x20 editors/lib.a(vi.o)
 .text.dot_prev
                0x00032850       0x20 editors/lib.a(vi.o)
 .text.dot_scroll
                0x00032870       0x84 editors/lib.a(vi.o)
 .text.screen_erase
                0x000328f4       0x20 editors/lib.a(vi.o)
 .text.new_screen
                0x00032914       0x7c editors/lib.a(vi.o)
 .text.mycmp    0x00032990       0x48 editors/lib.a(vi.o)
 .text.char_search
                0x000329d8       0xdc editors/lib.a(vi.o)
 .text.get_one_address
                0x00032ab4      0x188 editors/lib.a(vi.o)
 .text.end_cmd_q
                0x00032c3c       0x28 editors/lib.a(vi.o)
 .text.skip_thing
                0x00032c64      0x138 editors/lib.a(vi.o)
 .text.find_pair
                0x00032d9c       0xd4 editors/lib.a(vi.o)
 .text.text_yank
                0x00032e70       0x70 editors/lib.a(vi.o)
 .text.rawmode  0x00032ee0       0xa0 editors/lib.a(vi.o)
 .text.cookmode
                0x00032f80       0x34 editors/lib.a(vi.o)
 .text.catch_sig
                0x00032fb4       0x38 editors/lib.a(vi.o)
 .text.mysleep  0x00032fec       0x84 editors/lib.a(vi.o)
 .text.readit   0x00033070      0x20c editors/lib.a(vi.o)
 .text.place_cursor
                0x0003327c      0x148 editors/lib.a(vi.o)
 .text.suspend_sig
                0x000333c4       0x5c editors/lib.a(vi.o)
 .text.clear_to_eos
                0x00033420        0xc editors/lib.a(vi.o)
 .text.psbs     0x0003342c       0x68 editors/lib.a(vi.o)
 .text.text_hole_delete
                0x00033494       0xbc editors/lib.a(vi.o)
 .text.yank_delete
                0x00033550       0xa0 editors/lib.a(vi.o)
 .text.text_hole_make
                0x000335f0       0x9c editors/lib.a(vi.o)
 .text.stupid_insert
                0x0003368c       0x34 editors/lib.a(vi.o)
 .text.file_insert
                0x000336c0      0x1c0 editors/lib.a(vi.o)
 .text.file_write
                0x00033880       0x74 editors/lib.a(vi.o)
 .text.ni       0x000338f4      0x108 editors/lib.a(vi.o)
 .text.get_one_char
                0x000339fc       0xc4 editors/lib.a(vi.o)
 .text.psb      0x00033ac0       0x3c editors/lib.a(vi.o)
 .text.string_insert
                0x00033afc       0x88 editors/lib.a(vi.o)
 .text.refresh  0x00033b84      0x5a4 editors/lib.a(vi.o)
 .text.redraw   0x00034128       0x40 editors/lib.a(vi.o)
 .text.Indicate_Error
                0x00034168       0x4c editors/lib.a(vi.o)
 .text.char_insert
                0x000341b4      0x1ec editors/lib.a(vi.o)
 .text.init_text_buffer
                0x000343a0       0xf4 editors/lib.a(vi.o)
 .text.bound_dot
                0x00034494       0x4c editors/lib.a(vi.o)
 .text.Hit_Return
                0x000344e0       0x3c editors/lib.a(vi.o)
 .text.colon    0x0003451c      0xf90 editors/lib.a(vi.o)
 .text.show_status_line
                0x000354ac      0x288 editors/lib.a(vi.o)
 .text.cont_sig
                0x00035734       0x54 editors/lib.a(vi.o)
 .text.winch_sig
                0x00035788       0x4c editors/lib.a(vi.o)
 .text.get_input_line
                0x000357d4      0x130 editors/lib.a(vi.o)
 .text.do_cmd   0x00035904     0x18fc editors/lib.a(vi.o)
 .text.edit_file
                0x00037200      0x35c editors/lib.a(vi.o)
 .text.vi_main  0x0003755c      0x1ac editors/lib.a(vi.o)
                0x0003755c                vi_main
 .text.find_range
                0x00037708      0x238 editors/lib.a(vi.o)
 .text.exec_actions
                0x00037940       0x88 findutils/lib.a(find.o)
 .text.func_name
                0x000379c8       0x64 findutils/lib.a(find.o)
 .text.func_path
                0x00037a2c       0x20 findutils/lib.a(find.o)
 .text.func_regex
                0x00037a4c       0x5c findutils/lib.a(find.o)
 .text.func_type
                0x00037aa8       0x1c findutils/lib.a(find.o)
 .text.func_perm
                0x00037ac4       0x68 findutils/lib.a(find.o)
 .text.func_mtime
                0x00037b2c       0x90 findutils/lib.a(find.o)
 .text.func_mmin
                0x00037bbc       0x84 findutils/lib.a(find.o)
 .text.func_newer
                0x00037c40       0x18 findutils/lib.a(find.o)
 .text.func_inum
                0x00037c58       0x34 findutils/lib.a(find.o)
 .text.func_exec
                0x00037c8c      0x140 findutils/lib.a(find.o)
 .text.func_user
                0x00037dcc       0x18 findutils/lib.a(find.o)
 .text.func_group
                0x00037de4       0x18 findutils/lib.a(find.o)
 .text.func_print0
                0x00037dfc       0x20 findutils/lib.a(find.o)
 .text.func_print
                0x00037e1c       0x10 findutils/lib.a(find.o)
 .text.func_paren
                0x00037e2c       0x18 findutils/lib.a(find.o)
 .text.func_size
                0x00037e44       0xa4 findutils/lib.a(find.o)
 .text.func_prune
                0x00037ee8        0x8 findutils/lib.a(find.o)
 .text.func_delete
                0x00037ef0       0x40 findutils/lib.a(find.o)
 .text.fileAction
                0x00037f30       0xd8 findutils/lib.a(find.o)
 .text.plus_minus_num
                0x00038008       0x14 findutils/lib.a(find.o)
 .text.alloc_action.0
                0x0003801c       0x88 findutils/lib.a(find.o)
 .text.parse_params
                0x000380a4      0x684 findutils/lib.a(find.o)
 .text.find_main
                0x00038728      0x1e0 findutils/lib.a(find.o)
                0x00038728                find_main
 .text.print_line
                0x00038908       0xfc findutils/lib.a(grep.o)
 .text.grep_file
                0x00038a04      0x384 findutils/lib.a(grep.o)
 .text.add_grep_list_data
                0x00038d88       0x20 findutils/lib.a(grep.o)
 .text.file_action_grep
                0x00038da8       0x88 findutils/lib.a(grep.o)
 .text.grep_main
                0x00038e30      0x46c findutils/lib.a(grep.o)
                0x00038e30                grep_main
 .text.process_stdin
                0x0003929c      0x218 findutils/lib.a(xargs.o)
 .text.process0_stdin
                0x000394b4      0x118 findutils/lib.a(xargs.o)
 .text.xargs_main
                0x000395cc      0x3d8 findutils/lib.a(xargs.o)
                0x000395cc                xargs_main
 .text.halt_main
                0x000399a4       0xf4 init/lib.a(halt.o)
                0x000399a4                halt_main
 .text.loop_forever
                0x00039a98       0x10 init/lib.a(init.o)
 .text.message  0x00039aa8      0x110 init/lib.a(init.o)
 .text.set_sane_term
                0x00039bb8       0xac init/lib.a(init.o)
 .text.init_reboot
                0x00039c64       0x40 init/lib.a(init.o)
 .text.stop_handler
                0x00039ca4       0x48 init/lib.a(init.o)
 .text.cont_handler
                0x00039cec       0x14 init/lib.a(init.o)
 .text.new_init_action
                0x00039d00       0xc0 init/lib.a(init.o)
 .text.delete_init_action
                0x00039dc0       0x4c init/lib.a(init.o)
 .text.run_actions
                0x00039e0c       0xb4 init/lib.a(init.o)
 .text.ctrlaltdel_signal
                0x00039ec0        0x8 init/lib.a(init.o)
 .text.shutdown_system
                0x00039ec8      0x128 init/lib.a(init.o)
 .text.shutdown_signal
                0x00039ff0       0x70 init/lib.a(init.o)
 .text.open_stdio_to_tty
                0x0003a060       0xa0 init/lib.a(init.o)
 .text.run      0x0003a100      0x3f4 init/lib.a(init.o)
 .text.waitfor  0x0003a4f4       0x5c init/lib.a(init.o)
 .text.exec_signal
                0x0003a550      0x138 init/lib.a(init.o)
 .text.parse_inittab
                0x0003a688      0x298 init/lib.a(init.o)
 .text.reload_signal
                0x0003a920       0x74 init/lib.a(init.o)
 .text.init_main
                0x0003a994      0x470 init/lib.a(init.o)
                0x0003a994                init_main
 .text.mesg_main
                0x0003ae04       0xd0 init/lib.a(mesg.o)
                0x0003ae04                mesg_main
 .text.xsetenv_proto
                0x0003aed4       0x28 ipsvd/lib.a(tcpudp.o)
 .text.sig_term_handler
                0x0003aefc       0x34 ipsvd/lib.a(tcpudp.o)
 .text.connection_status
                0x0003af30       0x3c ipsvd/lib.a(tcpudp.o)
 .text.sig_child_handler
                0x0003af6c       0xd8 ipsvd/lib.a(tcpudp.o)
 .text.tcpudpsvd_main
                0x0003b044      0x88c ipsvd/lib.a(tcpudp.o)
                0x0003b044                tcpudpsvd_main
 .text.ipsvd_perhost_init
                0x0003b8d0       0x2c ipsvd/lib.a(ipsvd_perhost.o)
                0x0003b8d0                ipsvd_perhost_init
 .text.ipsvd_perhost_add
                0x0003b8fc       0xa4 ipsvd/lib.a(ipsvd_perhost.o)
                0x0003b8fc                ipsvd_perhost_add
 .text.ipsvd_perhost_remove
                0x0003b9a0       0x70 ipsvd/lib.a(ipsvd_perhost.o)
                0x0003b9a0                ipsvd_perhost_remove
 .text.bb_ask_confirmation
                0x0003ba10       0x54 libbb/lib.a(ask_confirmation.o)
                0x0003ba10                bb_ask_confirmation
 .text.bb_basename
                0x0003ba64       0x20 libbb/lib.a(bb_basename.o)
                0x0003ba64                bb_basename
 .text.bb_getug
                0x0003ba84       0x64 libbb/lib.a(bb_pwd.o)
 .text.bb_getpwuid
                0x0003bae8       0x44 libbb/lib.a(bb_pwd.o)
                0x0003bae8                bb_getpwuid
 .text.bb_getgrgid
                0x0003bb2c       0x44 libbb/lib.a(bb_pwd.o)
                0x0003bb2c                bb_getgrgid
 .text.xgroup2gid
                0x0003bb70       0x28 libbb/lib.a(bb_pwd.o)
                0x0003bb70                xgroup2gid
 .text.xuname2uid
                0x0003bb98       0x28 libbb/lib.a(bb_pwd.o)
                0x0003bb98                xuname2uid
 .text.get_ug_id
                0x0003bbc0       0x48 libbb/lib.a(bb_pwd.o)
                0x0003bbc0                get_ug_id
 .text.ret_ERANGE
                0x0003bc08       0x20 libbb/lib.a(bb_strtonum.o)
 .text.handle_errors
                0x0003bc28       0x70 libbb/lib.a(bb_strtonum.o)
 .text.bb_strtoull
                0x0003bc98       0x64 libbb/lib.a(bb_strtonum.o)
                0x0003bc98                bb_strtoull
 .text.bb_strtoll
                0x0003bcfc       0x70 libbb/lib.a(bb_strtonum.o)
                0x0003bcfc                bb_strtoll
 .text.bb_strtoul
                0x0003bd6c       0x68 libbb/lib.a(bb_strtonum.o)
                0x0003bd6c                bb_strtoul
 .text.bb_strtol
                0x0003bdd4       0x74 libbb/lib.a(bb_strtonum.o)
                0x0003bdd4                bb_strtol
 .text.chomp    0x0003be48       0x1c libbb/lib.a(chomp.o)
                0x0003be48                chomp
 .text.index_in_str_array
                0x0003be64       0x50 libbb/lib.a(compare_string_array.o)
                0x0003be64                index_in_str_array
 .text.index_in_strings
                0x0003beb4       0x60 libbb/lib.a(compare_string_array.o)
                0x0003beb4                index_in_strings
 .text.index_in_substrings
                0x0003bf14       0x74 libbb/lib.a(compare_string_array.o)
                0x0003bf14                index_in_substrings
 .text.concat_path_file
                0x0003bf88       0x64 libbb/lib.a(concat_path_file.o)
                0x0003bf88                concat_path_file
 .text.concat_subpath_file
                0x0003bfec       0x44 libbb/lib.a(concat_subpath_file.o)
                0x0003bfec                concat_subpath_file
 .text.ask_and_unlink
                0x0003c030       0x70 libbb/lib.a(copy_file.o)
 .text.copy_file
                0x0003c0a0      0x614 libbb/lib.a(copy_file.o)
                0x0003c0a0                copy_file
 .text.bb_full_fd_action
                0x0003c6b4      0x104 libbb/lib.a(copyfd.o)
 .text.bb_copyfd_size
                0x0003c7b8       0x18 libbb/lib.a(copyfd.o)
                0x0003c7b8                bb_copyfd_size
 .text.bb_copyfd_exact_size
                0x0003c7d0       0x40 libbb/lib.a(copyfd.o)
                0x0003c7d0                bb_copyfd_exact_size
 .text.bb_copyfd_eof
                0x0003c810        0xc libbb/lib.a(copyfd.o)
                0x0003c810                bb_copyfd_eof
 .text.crc32_filltable
                0x0003c81c       0x8c libbb/lib.a(crc32.o)
                0x0003c81c                crc32_filltable
 .text.device_open
                0x0003c8a8       0x54 libbb/lib.a(device_open.o)
                0x0003c8a8                device_open
 .text.bb_dump_size
                0x0003c8fc      0x114 libbb/lib.a(dump.o)
                0x0003c8fc                bb_dump_size
 .text.next     0x0003ca10      0x204 libbb/lib.a(dump.o)
 .text.bb_dump_dump
                0x0003cc14      0xca8 libbb/lib.a(dump.o)
                0x0003cc14                bb_dump_dump
 .text.bb_dump_add
                0x0003d8bc      0x218 libbb/lib.a(dump.o)
                0x0003d8bc                bb_dump_add
 .text.bb_error_msg
                0x0003dad4       0x24 libbb/lib.a(error_msg.o)
                0x0003dad4                bb_error_msg
 .text.xfunc_die
                0x0003daf8       0x28 libbb/lib.a(error_msg_and_die.o)
                0x0003daf8                xfunc_die
 .text.bb_error_msg_and_die
                0x0003db20       0x18 libbb/lib.a(error_msg_and_die.o)
                0x0003db20                bb_error_msg_and_die
 .text.execable_file
                0x0003db38       0x58 libbb/lib.a(execable.o)
                0x0003db38                execable_file
 .text.find_execable
                0x0003db90       0x9c libbb/lib.a(execable.o)
                0x0003db90                find_execable
 .text.exists_execable
                0x0003dc2c       0x20 libbb/lib.a(execable.o)
                0x0003dc2c                exists_execable
 .text.fclose_if_not_stdin
                0x0003dc4c       0x1c libbb/lib.a(fclose_nonstdin.o)
                0x0003dc4c                fclose_if_not_stdin
 .text.fflush_stdout_and_exit
                0x0003dc68       0x30 libbb/lib.a(fflush_stdout_and_exit.o)
                0x0003dc68                fflush_stdout_and_exit
 .text.find_mount_point
                0x0003dc98      0x128 libbb/lib.a(find_mount_point.o)
                0x0003dc98                find_mount_point
 .text.find_pid_by_name
                0x0003ddc0       0xa0 libbb/lib.a(find_pid_by_name.o)
                0x0003ddc0                find_pid_by_name
 .text.pidlist_reverse
                0x0003de60       0x58 libbb/lib.a(find_pid_by_name.o)
                0x0003de60                pidlist_reverse
 .text.find_block_device_in_dir
                0x0003deb8      0x12c libbb/lib.a(find_root_device.o)
 .text.find_block_device
                0x0003dfe4       0x6c libbb/lib.a(find_root_device.o)
                0x0003dfe4                find_block_device
 .text.full_write
                0x0003e050       0x48 libbb/lib.a(full_write.o)
                0x0003e050                full_write
 .text.get_console_fd
                0x0003e098       0xd8 libbb/lib.a(get_console.o)
                0x0003e098                get_console_fd
 .text.bb_get_last_path_component
                0x0003e170       0x54 libbb/lib.a(get_last_path_component.o)
                0x0003e170                bb_get_last_path_component
 .text.bb_get_chunk_from_file
                0x0003e1c4       0xa4 libbb/lib.a(get_line_from_file.o)
                0x0003e1c4                bb_get_chunk_from_file
 .text.xmalloc_fgets
                0x0003e268       0x18 libbb/lib.a(get_line_from_file.o)
                0x0003e268                xmalloc_fgets
 .text.xmalloc_getline
                0x0003e280       0x3c libbb/lib.a(get_line_from_file.o)
                0x0003e280                xmalloc_getline
 .text.getopt32
                0x0003e2bc      0x68c libbb/lib.a(getopt32.o)
                0x0003e2bc                getopt32
 .text.make_human_readable_str
                0x0003e948      0x114 libbb/lib.a(human_readable.o)
                0x0003e948                make_human_readable_str
 .text.bb_info_msg
                0x0003ea5c       0x70 libbb/lib.a(info_msg.o)
                0x0003ea5c                bb_info_msg
 .text.is_in_ino_dev_hashtable
                0x0003eacc       0xa8 libbb/lib.a(inode_hash.o)
                0x0003eacc                is_in_ino_dev_hashtable
 .text.add_to_ino_dev_hashtable
                0x0003eb74       0xa8 libbb/lib.a(inode_hash.o)
                0x0003eb74                add_to_ino_dev_hashtable
 .text.is_directory
                0x0003ec1c       0x68 libbb/lib.a(isdirectory.o)
                0x0003ec1c                is_directory
 .text.last_char_is
                0x0003ec84       0x3c libbb/lib.a(last_char_is.o)
                0x0003ec84                last_char_is
 .text.llist_add_to
                0x0003ecc0       0x28 libbb/lib.a(llist.o)
                0x0003ecc0                llist_add_to
 .text.llist_add_to_end
                0x0003ece8       0x4c libbb/lib.a(llist.o)
                0x0003ece8                llist_add_to_end
 .text.llist_pop
                0x0003ed34       0x34 libbb/lib.a(llist.o)
                0x0003ed34                llist_pop
 .text.llist_unlink
                0x0003ed68       0x54 libbb/lib.a(llist.o)
                0x0003ed68                llist_unlink
 .text.llist_free
                0x0003edbc       0x40 libbb/lib.a(llist.o)
                0x0003edbc                llist_free
 .text.bb_make_directory
                0x0003edfc      0x180 libbb/lib.a(make_directory.o)
                0x0003edfc                bb_make_directory
 .text.bb_makedev
                0x0003ef7c       0x74 libbb/lib.a(makedev.o)
                0x0003ef7c                bb_makedev
 .text.md5_begin
                0x0003eff0       0x4c libbb/lib.a(md5.o)
                0x0003eff0                md5_begin
 .text.md5_hash_block
                0x0003f03c      0x210 libbb/lib.a(md5.o)
 .text.md5_hash
                0x0003f24c       0x8c libbb/lib.a(md5.o)
                0x0003f24c                md5_hash
 .text.md5_end  0x0003f2d8       0xc4 libbb/lib.a(md5.o)
                0x0003f2d8                md5_end
 .text.bb_mode_string
                0x0003f39c       0xa4 libbb/lib.a(mode_string.o)
                0x0003f39c                bb_mode_string
 .text.bb_parse_mode
                0x0003f440      0x238 libbb/lib.a(parse_mode.o)
                0x0003f440                bb_parse_mode
 .text.bb_perror_msg
                0x0003f678       0x44 libbb/lib.a(perror_msg.o)
                0x0003f678                bb_perror_msg
 .text.bb_perror_msg_and_die
                0x0003f6bc       0x34 libbb/lib.a(perror_msg_and_die.o)
                0x0003f6bc                bb_perror_msg_and_die
 .text.bb_perror_nomsg
                0x0003f6f0        0x8 libbb/lib.a(perror_nomsg.o)
                0x0003f6f0                bb_perror_nomsg
 .text.bb_perror_nomsg_and_die
                0x0003f6f8        0x8 libbb/lib.a(perror_nomsg_and_die.o)
                0x0003f6f8                bb_perror_nomsg_and_die
 .text.write_pidfile
                0x0003f700       0xb0 libbb/lib.a(pidfile.o)
                0x0003f700                write_pidfile
 .text.bb_process_escape_sequence
                0x0003f7b0       0xc0 libbb/lib.a(process_escape_sequence.o)
                0x0003f7b0                bb_process_escape_sequence
 .text.clear_cache
                0x0003f870       0x20 libbb/lib.a(procps.o)
 .text.clear_username_cache
                0x0003f890       0x20 libbb/lib.a(procps.o)
                0x0003f890                clear_username_cache
 .text.get_cached
                0x0003f8b0       0x9c libbb/lib.a(procps.o)
 .text.get_cached_username
                0x0003f94c       0x18 libbb/lib.a(procps.o)
                0x0003f94c                get_cached_username
 .text.get_cached_groupname
                0x0003f964       0x18 libbb/lib.a(procps.o)
                0x0003f964                get_cached_groupname
 .text.read_to_buf
                0x0003f97c       0x54 libbb/lib.a(procps.o)
 .text.alloc_procps_scan
                0x0003f9d0       0x28 libbb/lib.a(procps.o)
                0x0003f9d0                alloc_procps_scan
 .text.free_procps_scan
                0x0003f9f8       0x24 libbb/lib.a(procps.o)
                0x0003f9f8                free_procps_scan
 .text.fast_strtoul_10
                0x0003fa1c       0x30 libbb/lib.a(procps.o)
 .text.skip_fields
                0x0003fa4c       0x18 libbb/lib.a(procps.o)
 .text.procps_scan
                0x0003fa64      0x2dc libbb/lib.a(procps.o)
                0x0003fa64                procps_scan
 .text.read_cmdline
                0x0003fd40       0x84 libbb/lib.a(procps.o)
                0x0003fd40                read_cmdline
 .text.safe_read
                0x0003fdc4       0x44 libbb/lib.a(read.o)
                0x0003fdc4                safe_read
 .text.full_read
                0x0003fe08       0x4c libbb/lib.a(read.o)
                0x0003fe08                full_read
 .text.xread    0x0003fe54       0x24 libbb/lib.a(read.o)
                0x0003fe54                xread
 .text.xread_char
                0x0003fe78       0x20 libbb/lib.a(read.o)
                0x0003fe78                xread_char
 .text.reads    0x0003fe98       0x9c libbb/lib.a(read.o)
                0x0003fe98                reads
 .text.xmalloc_reads
                0x0003ff34       0xa8 libbb/lib.a(read.o)
                0x0003ff34                xmalloc_reads
 .text.read_close
                0x0003ffdc       0x20 libbb/lib.a(read.o)
                0x0003ffdc                read_close
 .text.open_read_close
                0x0003fffc       0x2c libbb/lib.a(read.o)
                0x0003fffc                open_read_close
 .text.xmalloc_open_read_close
                0x00040028       0xd8 libbb/lib.a(read.o)
                0x00040028                xmalloc_open_read_close
 .text.true_action
                0x00040100        0x8 libbb/lib.a(recursive_action.o)
 .text.recursive_action
                0x00040108      0x1c8 libbb/lib.a(recursive_action.o)
                0x00040108                recursive_action
 .text.remove_file
                0x000402d0      0x250 libbb/lib.a(remove_file.o)
                0x000402d0                remove_file
 .text.safe_strncpy
                0x00040520       0x28 libbb/lib.a(safe_strncpy.o)
                0x00040520                safe_strncpy
 .text.safe_write
                0x00040548       0x44 libbb/lib.a(safe_write.o)
                0x00040548                safe_write
 .text.sha1_compile
                0x0004058c      0x230 libbb/lib.a(sha1.o)
 .text.sha1_begin
                0x000407bc       0x4c libbb/lib.a(sha1.o)
                0x000407bc                sha1_begin
 .text.sha1_hash
                0x00040808       0x88 libbb/lib.a(sha1.o)
                0x00040808                sha1_hash
 .text.sha1_end
                0x00040890      0x11c libbb/lib.a(sha1.o)
                0x00040890                sha1_end
 .text.skip_whitespace
                0x000409ac       0x28 libbb/lib.a(skip_whitespace.o)
                0x000409ac                skip_whitespace
 .text.skip_non_whitespace
                0x000409d4       0x30 libbb/lib.a(skip_whitespace.o)
                0x000409d4                skip_non_whitespace
 .text.tty_baud_to_value
                0x00040a04       0x60 libbb/lib.a(speed_table.o)
                0x00040a04                tty_baud_to_value
 .text.tty_value_to_baud
                0x00040a64       0x54 libbb/lib.a(speed_table.o)
                0x00040a64                tty_value_to_baud
 .text.get_signum
                0x00040ab8       0x90 libbb/lib.a(u_signal_names.o)
                0x00040ab8                get_signum
 .text.get_signame
                0x00040b48       0x2c libbb/lib.a(u_signal_names.o)
                0x00040b48                get_signame
 .text.socket_want_pktinfo
                0x00040b74       0x4c libbb/lib.a(udp_io.o)
                0x00040b74                socket_want_pktinfo
 .text.recv_from_to
                0x00040bc0      0x118 libbb/lib.a(udp_io.o)
                0x00040bc0                recv_from_to
 .text.bb_uuencode
                0x00040cd8       0x9c libbb/lib.a(uuencode.o)
                0x00040cd8                bb_uuencode
 .text.bb_verror_msg
                0x00040d74      0x190 libbb/lib.a(verror_msg.o)
                0x00040d74                bb_verror_msg
 .text.spawn    0x00040f04       0x78 libbb/lib.a(vfork_daemon_rexec.o)
                0x00040f04                spawn
 .text.xspawn   0x00040f7c       0x24 libbb/lib.a(vfork_daemon_rexec.o)
                0x00040f7c                xspawn
 .text.wait4pid
                0x00040fa0       0x64 libbb/lib.a(vfork_daemon_rexec.o)
                0x00040fa0                wait4pid
 .text.wait_nohang
                0x00041004       0x10 libbb/lib.a(vfork_daemon_rexec.o)
                0x00041004                wait_nohang
 .text.wait_pid
                0x00041014       0x40 libbb/lib.a(vfork_daemon_rexec.o)
                0x00041014                wait_pid
 .text.spawn_and_wait
                0x00041054       0x10 libbb/lib.a(vfork_daemon_rexec.o)
                0x00041054                spawn_and_wait
 .text.forkexit_or_rexec
                0x00041064       0x24 libbb/lib.a(vfork_daemon_rexec.o)
                0x00041064                forkexit_or_rexec
 .text.bb_daemonize_or_rexec
                0x00041088       0xb8 libbb/lib.a(vfork_daemon_rexec.o)
                0x00041088                bb_daemonize_or_rexec
 .text.bb_sanitize_stdio
                0x00041140        0x8 libbb/lib.a(vfork_daemon_rexec.o)
                0x00041140                bb_sanitize_stdio
 .text.bb_warn_ignoring_args
                0x00041148       0x14 libbb/lib.a(warn_ignoring_args.o)
                0x00041148                bb_warn_ignoring_args
 .text.fopen_or_warn
                0x0004115c       0x3c libbb/lib.a(wfopen.o)
                0x0004115c                fopen_or_warn
 .text.fopen_or_warn_stdin
                0x00041198       0x58 libbb/lib.a(wfopen_input.o)
                0x00041198                fopen_or_warn_stdin
 .text.xstrtoull_range_sfx
                0x000411f0      0x1a8 libbb/lib.a(xatonum.o)
                0x000411f0                xstrtoull_range_sfx
 .text.xstrtoull_range
                0x00041398       0x28 libbb/lib.a(xatonum.o)
                0x00041398                xstrtoull_range
 .text.xstrtoull_sfx
                0x000413c0       0x2c libbb/lib.a(xatonum.o)
                0x000413c0                xstrtoull_sfx
 .text.xstrtoull
                0x000413ec       0x30 libbb/lib.a(xatonum.o)
                0x000413ec                xstrtoull
 .text.xatoull_range_sfx
                0x0004141c       0x44 libbb/lib.a(xatonum.o)
                0x0004141c                xatoull_range_sfx
 .text.xatoull_range
                0x00041460       0x44 libbb/lib.a(xatonum.o)
                0x00041460                xatoull_range
 .text.xatoull_sfx
                0x000414a4       0x30 libbb/lib.a(xatonum.o)
                0x000414a4                xatoull_sfx
 .text.xatoull  0x000414d4        0x8 libbb/lib.a(xatonum.o)
                0x000414d4                xatoull
 .text.xstrtoll_range_sfx
                0x000414dc       0xd8 libbb/lib.a(xatonum.o)
                0x000414dc                xstrtoll_range_sfx
 .text.xstrtoll_range
                0x000415b4       0x28 libbb/lib.a(xatonum.o)
                0x000415b4                xstrtoll_range
 .text.xatoll_range_sfx
                0x000415dc       0x44 libbb/lib.a(xatonum.o)
                0x000415dc                xatoll_range_sfx
 .text.xatoll_range
                0x00041620       0x44 libbb/lib.a(xatonum.o)
                0x00041620                xatoll_range
 .text.xatoll_sfx
                0x00041664       0x40 libbb/lib.a(xatonum.o)
                0x00041664                xatoll_sfx
 .text.xatoll   0x000416a4       0x44 libbb/lib.a(xatonum.o)
                0x000416a4                xatoll
 .text.xstrtoul_range_sfx
                0x000416e8      0x138 libbb/lib.a(xatonum.o)
                0x000416e8                xstrtoul_range_sfx
 .text.xstrtol_range_sfx
                0x00041820       0x94 libbb/lib.a(xatonum.o)
                0x00041820                xstrtol_range_sfx
 .text.xatol    0x000418b4       0x28 libbb/lib.a(xatonum.o)
                0x000418b4                xatol
 .text.xatol_sfx
                0x000418dc       0x24 libbb/lib.a(xatonum.o)
                0x000418dc                xatol_sfx
 .text.xatol_range
                0x00041900       0x28 libbb/lib.a(xatonum.o)
                0x00041900                xatol_range
 .text.xatol_range_sfx
                0x00041928       0x28 libbb/lib.a(xatonum.o)
                0x00041928                xatol_range_sfx
 .text.xstrtol_range
                0x00041950       0x1c libbb/lib.a(xatonum.o)
                0x00041950                xstrtol_range
 .text.xatoul_sfx
                0x0004196c       0x24 libbb/lib.a(xatonum.o)
                0x0004196c                xatoul_sfx
 .text.xatoul   0x00041990        0x8 libbb/lib.a(xatonum.o)
                0x00041990                xatoul
 .text.xatoul_range
                0x00041998       0x28 libbb/lib.a(xatonum.o)
                0x00041998                xatoul_range
 .text.xatoul_range_sfx
                0x000419c0       0x28 libbb/lib.a(xatonum.o)
                0x000419c0                xatoul_range_sfx
 .text.xstrtoul
                0x000419e8       0x24 libbb/lib.a(xatonum.o)
                0x000419e8                xstrtoul
 .text.xstrtoul_sfx
                0x00041a0c       0x20 libbb/lib.a(xatonum.o)
                0x00041a0c                xstrtoul_sfx
 .text.xstrtoul_range
                0x00041a2c       0x1c libbb/lib.a(xatonum.o)
                0x00041a2c                xstrtoul_range
 .text.xatoi_u  0x00041a48        0xc libbb/lib.a(xatonum.o)
                0x00041a48                xatoi_u
 .text.xatou16  0x00041a54       0x20 libbb/lib.a(xatonum.o)
                0x00041a54                xatou16
 .text.setsockopt_reuseaddr
                0x00041a74       0x2c libbb/lib.a(xconnect.o)
                0x00041a74                setsockopt_reuseaddr
 .text.setsockopt_broadcast
                0x00041aa0       0x2c libbb/lib.a(xconnect.o)
                0x00041aa0                setsockopt_broadcast
 .text.xconnect
                0x00041acc       0x4c libbb/lib.a(xconnect.o)
                0x00041acc                xconnect
 .text.bb_lookup_port
                0x00041b18       0x94 libbb/lib.a(xconnect.o)
                0x00041b18                bb_lookup_port
 .text.get_nport
                0x00041bac       0x28 libbb/lib.a(xconnect.o)
                0x00041bac                get_nport
 .text.set_nport
                0x00041bd4       0x30 libbb/lib.a(xconnect.o)
                0x00041bd4                set_nport
 .text.str2sockaddr
                0x00041c04      0x198 libbb/lib.a(xconnect.o)
 .text.host_and_af2sockaddr
                0x00041d9c       0x10 libbb/lib.a(xconnect.o)
                0x00041d9c                host_and_af2sockaddr
 .text.xhost_and_af2sockaddr
                0x00041dac       0x10 libbb/lib.a(xconnect.o)
                0x00041dac                xhost_and_af2sockaddr
 .text.host2sockaddr
                0x00041dbc        0xc libbb/lib.a(xconnect.o)
                0x00041dbc                host2sockaddr
 .text.xhost2sockaddr
                0x00041dc8        0xc libbb/lib.a(xconnect.o)
                0x00041dc8                xhost2sockaddr
 .text.xdotted2sockaddr
                0x00041dd4        0xc libbb/lib.a(xconnect.o)
                0x00041dd4                xdotted2sockaddr
 .text.xsocket_type
                0x00041de0       0x80 libbb/lib.a(xconnect.o)
                0x00041de0                xsocket_type
 .text.xsocket_stream
                0x00041e60        0xc libbb/lib.a(xconnect.o)
                0x00041e60                xsocket_stream
 .text.create_and_bind_or_die
                0x00041e6c       0xa4 libbb/lib.a(xconnect.o)
 .text.create_and_bind_stream_or_die
                0x00041f10        0x8 libbb/lib.a(xconnect.o)
                0x00041f10                create_and_bind_stream_or_die
 .text.create_and_bind_dgram_or_die
                0x00041f18        0x8 libbb/lib.a(xconnect.o)
                0x00041f18                create_and_bind_dgram_or_die
 .text.create_and_connect_stream_or_die
                0x00041f20       0x50 libbb/lib.a(xconnect.o)
                0x00041f20                create_and_connect_stream_or_die
 .text.xconnect_stream
                0x00041f70       0x3c libbb/lib.a(xconnect.o)
                0x00041f70                xconnect_stream
 .text.sockaddr2str
                0x00041fac       0xb8 libbb/lib.a(xconnect.o)
 .text.xmalloc_sockaddr2host
                0x00042064        0x8 libbb/lib.a(xconnect.o)
                0x00042064                xmalloc_sockaddr2host
 .text.xmalloc_sockaddr2host_noport
                0x0004206c        0x8 libbb/lib.a(xconnect.o)
                0x0004206c                xmalloc_sockaddr2host_noport
 .text.xmalloc_sockaddr2hostonly_noport
                0x00042074        0x8 libbb/lib.a(xconnect.o)
                0x00042074                xmalloc_sockaddr2hostonly_noport
 .text.xmalloc_sockaddr2dotted
                0x0004207c        0x8 libbb/lib.a(xconnect.o)
                0x0004207c                xmalloc_sockaddr2dotted
 .text.xmalloc_sockaddr2dotted_noport
                0x00042084        0x8 libbb/lib.a(xconnect.o)
                0x00042084                xmalloc_sockaddr2dotted_noport
 .text.malloc_or_warn
                0x0004208c       0x38 libbb/lib.a(xfuncs.o)
                0x0004208c                malloc_or_warn
 .text.xmalloc  0x000420c4       0x30 libbb/lib.a(xfuncs.o)
                0x000420c4                xmalloc
 .text.xrealloc
                0x000420f4       0x30 libbb/lib.a(xfuncs.o)
                0x000420f4                xrealloc
 .text.xzalloc  0x00042124       0x24 libbb/lib.a(xfuncs.o)
                0x00042124                xzalloc
 .text.xstrdup  0x00042148       0x2c libbb/lib.a(xfuncs.o)
                0x00042148                xstrdup
 .text.xstrndup
                0x00042174       0x58 libbb/lib.a(xfuncs.o)
                0x00042174                xstrndup
 .text.xfopen   0x000421cc       0x24 libbb/lib.a(xfuncs.o)
                0x000421cc                xfopen
 .text.xopen3   0x000421f0       0x24 libbb/lib.a(xfuncs.o)
                0x000421f0                xopen3
 .text.xopen    0x00042214        0xc libbb/lib.a(xfuncs.o)
                0x00042214                xopen
 .text.open3_or_warn
                0x00042220       0x28 libbb/lib.a(xfuncs.o)
                0x00042220                open3_or_warn
 .text.open_or_warn
                0x00042248        0xc libbb/lib.a(xfuncs.o)
                0x00042248                open_or_warn
 .text.xpipe    0x00042254       0x1c libbb/lib.a(xfuncs.o)
                0x00042254                xpipe
 .text.xunlink  0x00042270       0x24 libbb/lib.a(xfuncs.o)
                0x00042270                xunlink
 .text.ndelay_on
                0x00042294       0x24 libbb/lib.a(xfuncs.o)
                0x00042294                ndelay_on
 .text.ndelay_off
                0x000422b8       0x24 libbb/lib.a(xfuncs.o)
                0x000422b8                ndelay_off
 .text.xdup2    0x000422dc       0x20 libbb/lib.a(xfuncs.o)
                0x000422dc                xdup2
 .text.xmove_fd
                0x000422fc       0x20 libbb/lib.a(xfuncs.o)
                0x000422fc                xmove_fd
 .text.xwrite   0x0004231c       0x24 libbb/lib.a(xfuncs.o)
                0x0004231c                xwrite
 .text.xlseek   0x00042340       0x48 libbb/lib.a(xfuncs.o)
                0x00042340                xlseek
 .text.die_if_ferror
                0x00042388       0x24 libbb/lib.a(xfuncs.o)
                0x00042388                die_if_ferror
 .text.die_if_ferror_stdout
                0x000423ac       0x18 libbb/lib.a(xfuncs.o)
                0x000423ac                die_if_ferror_stdout
 .text.xfflush_stdout
                0x000423c4       0x28 libbb/lib.a(xfuncs.o)
                0x000423c4                xfflush_stdout
 .text.sig_block
                0x000423ec       0x3c libbb/lib.a(xfuncs.o)
                0x000423ec                sig_block
 .text.sig_unblock
                0x00042428       0x3c libbb/lib.a(xfuncs.o)
                0x00042428                sig_unblock
 .text.sig_catch
                0x00042464       0x38 libbb/lib.a(xfuncs.o)
                0x00042464                sig_catch
 .text.sig_pause
                0x0004249c       0x24 libbb/lib.a(xfuncs.o)
                0x0004249c                sig_pause
 .text.xsetenv  0x000424c0       0x20 libbb/lib.a(xfuncs.o)
                0x000424c0                xsetenv
 .text.smart_ulltoa5
                0x000424e0      0x1c8 libbb/lib.a(xfuncs.o)
                0x000424e0                smart_ulltoa5
 .text.utoa_to_buf
                0x000426a8       0x84 libbb/lib.a(xfuncs.o)
                0x000426a8                utoa_to_buf
 .text.itoa_to_buf
                0x0004272c       0x28 libbb/lib.a(xfuncs.o)
                0x0004272c                itoa_to_buf
 .text.utoa     0x00042754       0x28 libbb/lib.a(xfuncs.o)
                0x00042754                utoa
 .text.itoa     0x0004277c       0x28 libbb/lib.a(xfuncs.o)
                0x0004277c                itoa
 .text.bin2hex  0x000427a4       0x44 libbb/lib.a(xfuncs.o)
                0x000427a4                bin2hex
 .text.xsetgid  0x000427e8       0x1c libbb/lib.a(xfuncs.o)
                0x000427e8                xsetgid
 .text.xsetuid  0x00042804       0x1c libbb/lib.a(xfuncs.o)
                0x00042804                xsetuid
 .text.fdlength
                0x00042820      0x190 libbb/lib.a(xfuncs.o)
                0x00042820                fdlength
 .text.xasprintf
                0x000429b0       0x40 libbb/lib.a(xfuncs.o)
                0x000429b0                xasprintf
 .text.xprint_and_close_file
                0x000429f0       0x4c libbb/lib.a(xfuncs.o)
                0x000429f0                xprint_and_close_file
 .text.xchdir   0x00042a3c       0x24 libbb/lib.a(xfuncs.o)
                0x00042a3c                xchdir
 .text.warn_opendir
                0x00042a60       0x28 libbb/lib.a(xfuncs.o)
                0x00042a60                warn_opendir
 .text.xopendir
                0x00042a88       0x24 libbb/lib.a(xfuncs.o)
                0x00042a88                xopendir
 .text.xsocket  0x00042aac       0x1c libbb/lib.a(xfuncs.o)
                0x00042aac                xsocket
 .text.xbind    0x00042ac8       0x1c libbb/lib.a(xfuncs.o)
                0x00042ac8                xbind
 .text.xlisten  0x00042ae4       0x1c libbb/lib.a(xfuncs.o)
                0x00042ae4                xlisten
 .text.xsendto  0x00042b00       0x34 libbb/lib.a(xfuncs.o)
                0x00042b00                xsendto
 .text.xstat    0x00042b34       0x30 libbb/lib.a(xfuncs.o)
                0x00042b34                xstat
 .text.selinux_or_die
                0x00042b64       0x10 libbb/lib.a(xfuncs.o)
                0x00042b64                selinux_or_die
 .text.get_terminal_width_height
                0x00042b74      0x13c libbb/lib.a(xfuncs.o)
                0x00042b74                get_terminal_width_height
 .text.ioctl_or_perror_and_die
                0x00042cb0       0x48 libbb/lib.a(xfuncs.o)
                0x00042cb0                ioctl_or_perror_and_die
 .text.ioctl_or_perror
                0x00042cf8       0x48 libbb/lib.a(xfuncs.o)
                0x00042cf8                ioctl_or_perror
 .text.bb_ioctl_or_warn
                0x00042d40       0x28 libbb/lib.a(xfuncs.o)
                0x00042d40                bb_ioctl_or_warn
 .text.bb_xioctl
                0x00042d68       0x24 libbb/lib.a(xfuncs.o)
                0x00042d68                bb_xioctl
 .text.xrealloc_getcwd_or_warn
                0x00042d8c       0x80 libbb/lib.a(xgetcwd.o)
                0x00042d8c                xrealloc_getcwd_or_warn
 .text.xmalloc_readlink_or_warn
                0x00042e0c       0x78 libbb/lib.a(xreadlink.o)
                0x00042e0c                xmalloc_readlink_or_warn
 .text.xmalloc_realpath
                0x00042e84        0x8 libbb/lib.a(xreadlink.o)
                0x00042e84                xmalloc_realpath
 .text.regcomp_or_errmsg
                0x00042e8c       0x50 libbb/lib.a(xregcomp.o)
                0x00042e8c                regcomp_or_errmsg
 .text.xregcomp
                0x00042edc       0x20 libbb/lib.a(xregcomp.o)
                0x00042edc                xregcomp
 .text.get_S    0x00042efc       0x30 libpwdgrp/lib.a(pwd_grp.o)
 .text.bb_internal_setpwent
                0x00042f2c       0x18 libpwdgrp/lib.a(pwd_grp.o)
                0x00042f2c                bb_internal_setpwent
 .text.bb_internal_endpwent
                0x00042f44       0x28 libpwdgrp/lib.a(pwd_grp.o)
                0x00042f44                bb_internal_endpwent
 .text.bb_internal_setgrent
                0x00042f6c       0x18 libpwdgrp/lib.a(pwd_grp.o)
                0x00042f6c                bb_internal_setgrent
 .text.bb_internal_endgrent
                0x00042f84       0x28 libpwdgrp/lib.a(pwd_grp.o)
                0x00042f84                bb_internal_endgrent
 .text.bb_internal_setspent
                0x00042fac       0x18 libpwdgrp/lib.a(pwd_grp.o)
                0x00042fac                bb_internal_setspent
 .text.bb_internal_endspent
                0x00042fc4       0x28 libpwdgrp/lib.a(pwd_grp.o)
                0x00042fc4                bb_internal_endspent
 .text.bb_internal_putpwent
                0x00042fec       0x80 libpwdgrp/lib.a(pwd_grp.o)
                0x00042fec                bb_internal_putpwent
 .text.bb_internal_putgrent
                0x0004306c       0xb0 libpwdgrp/lib.a(pwd_grp.o)
                0x0004306c                bb_internal_putgrent
 .text.bb_internal_putspent
                0x0004311c       0xc4 libpwdgrp/lib.a(pwd_grp.o)
                0x0004311c                bb_internal_putspent
 .text.bb__parsespent
                0x000431e0       0xac libpwdgrp/lib.a(pwd_grp.o)
 .text.bb_internal_sgetspent_r
                0x0004328c       0x7c libpwdgrp/lib.a(pwd_grp.o)
                0x0004328c                bb_internal_sgetspent_r
 .text.bb__parsepwent
                0x00043308       0xa0 libpwdgrp/lib.a(pwd_grp.o)
 .text.bb__parsegrent
                0x000433a8      0x140 libpwdgrp/lib.a(pwd_grp.o)
 .text.bb__pgsreader
                0x000434e8       0xf4 libpwdgrp/lib.a(pwd_grp.o)
 .text.bb_internal_initgroups
                0x000435dc      0x114 libpwdgrp/lib.a(pwd_grp.o)
                0x000435dc                bb_internal_initgroups
 .text.bb_internal_getspent_r
                0x000436f0       0x94 libpwdgrp/lib.a(pwd_grp.o)
                0x000436f0                bb_internal_getspent_r
 .text.bb_internal_getgrent_r
                0x00043784       0x94 libpwdgrp/lib.a(pwd_grp.o)
                0x00043784                bb_internal_getgrent_r
 .text.bb_internal_getpwent_r
                0x00043818       0x94 libpwdgrp/lib.a(pwd_grp.o)
                0x00043818                bb_internal_getpwent_r
 .text.bb_internal_getgrgid_r
                0x000438ac       0xa4 libpwdgrp/lib.a(pwd_grp.o)
                0x000438ac                bb_internal_getgrgid_r
 .text.bb_internal_getgrgid
                0x00043950       0x3c libpwdgrp/lib.a(pwd_grp.o)
                0x00043950                bb_internal_getgrgid
 .text.bb_internal_getpwuid_r
                0x0004398c       0xa4 libpwdgrp/lib.a(pwd_grp.o)
                0x0004398c                bb_internal_getpwuid_r
 .text.bb_internal_getpw
                0x00043a30       0x9c libpwdgrp/lib.a(pwd_grp.o)
                0x00043a30                bb_internal_getpw
 .text.bb_internal_getpwuid
                0x00043acc       0x38 libpwdgrp/lib.a(pwd_grp.o)
                0x00043acc                bb_internal_getpwuid
 .text.bb_internal_getspnam_r
                0x00043b04       0xac libpwdgrp/lib.a(pwd_grp.o)
                0x00043b04                bb_internal_getspnam_r
 .text.bb_internal_getgrnam_r
                0x00043bb0       0xac libpwdgrp/lib.a(pwd_grp.o)
                0x00043bb0                bb_internal_getgrnam_r
 .text.bb_internal_getgrnam
                0x00043c5c       0x3c libpwdgrp/lib.a(pwd_grp.o)
                0x00043c5c                bb_internal_getgrnam
 .text.bb_internal_getpwnam_r
                0x00043c98       0xac libpwdgrp/lib.a(pwd_grp.o)
                0x00043c98                bb_internal_getpwnam_r
 .text.bb_internal_getpwnam
                0x00043d44       0x3c libpwdgrp/lib.a(pwd_grp.o)
                0x00043d44                bb_internal_getpwnam
 .text.bb_internal_fgetspent_r
                0x00043d80       0x38 libpwdgrp/lib.a(pwd_grp.o)
                0x00043d80                bb_internal_fgetspent_r
 .text.bb_internal_fgetgrent_r
                0x00043db8       0x38 libpwdgrp/lib.a(pwd_grp.o)
                0x00043db8                bb_internal_fgetgrent_r
 .text.bb_internal_fgetpwent_r
                0x00043df0       0x38 libpwdgrp/lib.a(pwd_grp.o)
                0x00043df0                bb_internal_fgetpwent_r
 .text.get_uidgid
                0x00043e28      0x128 libpwdgrp/lib.a(uidgid_get.o)
                0x00043e28                get_uidgid
 .text.parse_chown_usergroup_or_die
                0x00043f50       0xb0 libpwdgrp/lib.a(uidgid_get.o)
                0x00043f50                parse_chown_usergroup_or_die
 .text.add_user_to_group
                0x00044000      0x10c loginutils/lib.a(addgroup.o)
 .text.addgroup_main
                0x0004410c      0x1f0 loginutils/lib.a(addgroup.o)
                0x0004410c                addgroup_main
 .text.adduser_main
                0x000442fc      0x3c0 loginutils/lib.a(adduser.o)
                0x000442fc                adduser_main
 .text.chpasswd_main
                0x000446bc      0x174 loginutils/lib.a(chpasswd.o)
                0x000446bc                chpasswd_main
 .text.cryptpw_main
                0x00044830       0xa8 loginutils/lib.a(cryptpw.o)
                0x00044830                cryptpw_main
 .text.del_line_matching
                0x000448d8      0x220 loginutils/lib.a(deluser.o)
 .text.deluser_main
                0x00044af8       0xbc loginutils/lib.a(deluser.o)
                0x00044af8                deluser_main
 .text.bcode    0x00044bb4       0x44 loginutils/lib.a(getty.o)
 .text.parse_speeds
                0x00044bf8       0x80 loginutils/lib.a(getty.o)
 .text.getty_main
                0x00044c78      0xa90 loginutils/lib.a(getty.o)
                0x00044c78                getty_main
 .text.alarm_handler
                0x00045708       0x2c loginutils/lib.a(login.o)
 .text.login_main
                0x00045734      0x76c loginutils/lib.a(login.o)
                0x00045734                login_main
 .text.nuke_str
                0x00045ea0       0x24 loginutils/lib.a(passwd.o)
 .text.passwd_main
                0x00045ec4      0x4b0 loginutils/lib.a(passwd.o)
                0x00045ec4                passwd_main
 .text.su_main  0x00046374      0x240 loginutils/lib.a(su.o)
                0x00046374                su_main
 .text.catchalarm
                0x000465b4        0xc loginutils/lib.a(sulogin.o)
 .text.sulogin_main
                0x000465c0      0x258 loginutils/lib.a(sulogin.o)
                0x000465c0                sulogin_main
 .text.release_vt
                0x00046818       0x2c loginutils/lib.a(vlock.o)
 .text.acquire_vt
                0x00046844       0x1c loginutils/lib.a(vlock.o)
 .text.vlock_main
                0x00046860      0x2d8 loginutils/lib.a(vlock.o)
                0x00046860                vlock_main
 .text.adjtimex_main
                0x00046b38      0x1f8 miscutils/lib.a(adjtimex.o)
                0x00046b38                adjtimex_main
 .text.show_min_max
                0x00046d30       0x64 miscutils/lib.a(chrt.o)
 .text.chrt_main
                0x00046d94      0x1e4 miscutils/lib.a(chrt.o)
                0x00046d94                chrt_main
 .text.crondlog
                0x00046f78       0xb8 miscutils/lib.a(crond.o)
 .text.ParseField
                0x00047030      0x2b4 miscutils/lib.a(crond.o)
 .text.DeleteFile
                0x000472e4       0xc4 miscutils/lib.a(crond.o)
 .text.SynchronizeFile
                0x000473a8      0x2c0 miscutils/lib.a(crond.o)
 .text.SynchronizeDir
                0x00047668       0xf4 miscutils/lib.a(crond.o)
 .text.ForkJob  0x0004775c      0x214 miscutils/lib.a(crond.o)
 .text.crond_main
                0x00047970      0x658 miscutils/lib.a(crond.o)
                0x00047970                crond_main
 .text.ChangeUser
                0x00047fc8       0xb0 miscutils/lib.a(crontab.o)
 .text.crontab_main
                0x00048078      0x680 miscutils/lib.a(crontab.o)
                0x00048078                crontab_main
 .text.push     0x000486f8       0x3c miscutils/lib.a(dc.o)
 .text.pop      0x00048734       0x3c miscutils/lib.a(dc.o)
 .text.add      0x00048770       0x30 miscutils/lib.a(dc.o)
 .text.sub      0x000487a0       0x28 miscutils/lib.a(dc.o)
 .text.mul      0x000487c8       0x30 miscutils/lib.a(dc.o)
 .text.power    0x000487f8       0x28 miscutils/lib.a(dc.o)
 .text.divide   0x00048820       0x28 miscutils/lib.a(dc.o)
 .text.mod      0x00048848       0x64 miscutils/lib.a(dc.o)
 .text.and      0x000488ac       0x60 miscutils/lib.a(dc.o)
 .text.or       0x0004890c       0x60 miscutils/lib.a(dc.o)
 .text.eor      0x0004896c       0x60 miscutils/lib.a(dc.o)
 .text.not      0x000489cc       0x54 miscutils/lib.a(dc.o)
 .text.set_output_base
                0x00048a20       0x44 miscutils/lib.a(dc.o)
 .text.print_base
                0x00048a64       0x48 miscutils/lib.a(dc.o)
 .text.print_stack_no_pop
                0x00048aac       0x3c miscutils/lib.a(dc.o)
 .text.print_no_pop
                0x00048ae8       0x20 miscutils/lib.a(dc.o)
 .text.stack_machine
                0x00048b08       0x84 miscutils/lib.a(dc.o)
 .text.get_token
                0x00048b8c       0x34 miscutils/lib.a(dc.o)
 .text.dc_main  0x00048bc0       0xcc miscutils/lib.a(dc.o)
                0x00048bc0                dc_main
 .text.eject_main
                0x00048c8c       0xc4 miscutils/lib.a(eject.o)
                0x00048c8c                eject_main
 .text.ioctl_alt_func
                0x00048d50       0x40 miscutils/lib.a(hdparm.o)
 .text.on_off   0x00048d90       0x20 miscutils/lib.a(hdparm.o)
 .text.print_flag_on_off
                0x00048db0       0x28 miscutils/lib.a(hdparm.o)
 .text.print_value_on_off
                0x00048dd8       0x2c miscutils/lib.a(hdparm.o)
 .text.xprint_ascii
                0x00048e04       0xd4 miscutils/lib.a(hdparm.o)
 .text.mode_loop
                0x00048ed8       0x94 miscutils/lib.a(hdparm.o)
 .text.identify
                0x00048f6c     0x1514 miscutils/lib.a(hdparm.o)
 .text.flush_buffer_cache
                0x0004a480       0x74 miscutils/lib.a(hdparm.o)
 .text.seek_to_zero
                0x0004a4f4       0x24 miscutils/lib.a(hdparm.o)
 .text.read_big_block
                0x0004a518       0x60 miscutils/lib.a(hdparm.o)
 .text.do_time  0x0004a578      0x330 miscutils/lib.a(hdparm.o)
 .text.bus_state_value
                0x0004a8a8       0x3c miscutils/lib.a(hdparm.o)
 .text.print_flag
                0x0004a8e4       0x14 miscutils/lib.a(hdparm.o)
 .text.process_dev
                0x0004a8f8     0x18e4 miscutils/lib.a(hdparm.o)
 .text.parse_opts
                0x0004c1dc       0x4c miscutils/lib.a(hdparm.o)
 .text.parse_xfermode
                0x0004c228       0xc0 miscutils/lib.a(hdparm.o)
 .text.hdparm_main
                0x0004c2e8      0x6a4 miscutils/lib.a(hdparm.o)
                0x0004c2e8                hdparm_main
 .text.last_main
                0x0004c98c      0x214 miscutils/lib.a(last.o)
                0x0004c98c                last_main
 .text.set_tty_cooked
                0x0004cba0       0x34 miscutils/lib.a(less.o)
 .text.less_exit
                0x0004cbd4       0x18 miscutils/lib.a(less.o)
 .text.clear_line
                0x0004cbec       0x20 miscutils/lib.a(less.o)
 .text.print_hilite
                0x0004cc0c       0x10 miscutils/lib.a(less.o)
 .text.print_statusline
                0x0004cc1c       0x34 miscutils/lib.a(less.o)
 .text.m_status_print
                0x0004cc50       0xf0 miscutils/lib.a(less.o)
 .text.cap_cur_fline
                0x0004cd40       0x70 miscutils/lib.a(less.o)
 .text.fill_match_lines
                0x0004cdb0       0xb8 miscutils/lib.a(less.o)
 .text.read_lines
                0x0004ce68      0x388 miscutils/lib.a(less.o)
 .text.buffer_print
                0x0004d1f0      0x350 miscutils/lib.a(less.o)
 .text.buffer_fill_and_print
                0x0004d540       0x98 miscutils/lib.a(less.o)
 .text.buffer_down
                0x0004d5d8       0x34 miscutils/lib.a(less.o)
 .text.buffer_up
                0x0004d60c       0x34 miscutils/lib.a(less.o)
 .text.buffer_line
                0x0004d640       0x50 miscutils/lib.a(less.o)
 .text.reinitialize
                0x0004d690       0xe4 miscutils/lib.a(less.o)
 .text.less_getch
                0x0004d774      0x1d8 miscutils/lib.a(less.o)
 .text.less_gets
                0x0004d94c       0xfc miscutils/lib.a(less.o)
 .text.examine_file
                0x0004da48       0x4c miscutils/lib.a(less.o)
 .text.change_file
                0x0004da94       0x94 miscutils/lib.a(less.o)
 .text.goto_match
                0x0004db28       0xa8 miscutils/lib.a(less.o)
 .text.regex_process
                0x0004dbd0      0x140 miscutils/lib.a(less.o)
 .text.opp_bracket
                0x0004dd10       0x68 miscutils/lib.a(less.o)
 .text.sig_catcher
                0x0004dd78       0x10 miscutils/lib.a(less.o)
 .text.less_main
                0x0004dd88      0xb00 miscutils/lib.a(less.o)
                0x0004dd88                less_main
 .text.makedevs_main
                0x0004e888      0x4e0 miscutils/lib.a(makedevs.o)
                0x0004e888                makedevs_main
 .text.mountpoint_main
                0x0004ed68      0x244 miscutils/lib.a(mountpoint.o)
                0x0004ed68                mountpoint_main
 .text.mt_main  0x0004efac      0x168 miscutils/lib.a(mt.o)
                0x0004efac                mt_main
 .text.raidautorun_main
                0x0004f114       0x3c miscutils/lib.a(raidautorun.o)
                0x0004f114                raidautorun_main
 .text.readahead_main
                0x0004f150       0x80 miscutils/lib.a(readahead.o)
                0x0004f150                readahead_main
 .text.runlevel_main
                0x0004f1d0       0x78 miscutils/lib.a(runlevel.o)
                0x0004f1d0                runlevel_main
 .text.read_byte
                0x0004f248       0x44 miscutils/lib.a(rx.o)
 .text.sigalrm_handler
                0x0004f28c        0x4 miscutils/lib.a(rx.o)
 .text.rx_main  0x0004f290      0x4d4 miscutils/lib.a(rx.o)
                0x0004f290                rx_main
 .text.setsid_main
                0x0004f764       0x44 miscutils/lib.a(setsid.o)
                0x0004f764                setsid_main
 .text.strings_main
                0x0004f7a8      0x1a8 miscutils/lib.a(strings.o)
                0x0004f7a8                strings_main
 .text.taskset_main
                0x0004f950      0x234 miscutils/lib.a(taskset.o)
                0x0004f950                taskset_main
 .text.ptok     0x0004fb84       0x4c miscutils/lib.a(time.o)
 .text.run_command
                0x0004fbd0      0x12c miscutils/lib.a(time.o)
 .text.time_main
                0x0004fcfc      0x654 miscutils/lib.a(time.o)
                0x0004fcfc                time_main
 .text.ttysize_main
                0x00050350       0xd0 miscutils/lib.a(ttysize.o)
                0x00050350                ttysize_main
 .text.watchdog_shutdown
                0x00050420       0x20 miscutils/lib.a(watchdog.o)
 .text.watchdog_main
                0x00050440       0xb4 miscutils/lib.a(watchdog.o)
                0x00050440                watchdog_main
 .text.check_module_name_match
                0x000504f4       0x70 modutils/lib.a(insmod.o)
 .text.arch_new_section
                0x00050564        0x8 modutils/lib.a(insmod.o)
 .text.arch_new_symbol
                0x0005056c       0x24 modutils/lib.a(insmod.o)
 .text.arch_single_init
                0x00050590       0x34 modutils/lib.a(insmod.o)
 .text.obj_find_section
                0x000505c4       0x5c modutils/lib.a(insmod.o)
 .text.obj_find_symbol
                0x00050620       0x64 modutils/lib.a(insmod.o)
 .text.obj_elf_hash_n
                0x00050684       0x30 modutils/lib.a(insmod.o)
 .text.obj_elf_hash
                0x000506b4       0x1c modutils/lib.a(insmod.o)
 .text.ncv_strcmp
                0x000506d0       0xa0 modutils/lib.a(insmod.o)
 .text.ncv_symbol_hash
                0x00050770       0x40 modutils/lib.a(insmod.o)
 .text.obj_add_symbol
                0x000507b0      0x1fc modutils/lib.a(insmod.o)
 .text.obj_symbol_final_value
                0x000509ac       0x34 modutils/lib.a(insmod.o)
 .text.obj_load_order_prio
                0x000509e0       0x78 modutils/lib.a(insmod.o)
 .text.obj_insert_section_load_order
                0x00050a58       0x5c modutils/lib.a(insmod.o)
 .text.obj_create_alloced_section
                0x00050ab4       0xa4 modutils/lib.a(insmod.o)
 .text.obj_extend_section
                0x00050b58       0x38 modutils/lib.a(insmod.o)
 .text.arch_xsect_init
                0x00050b90       0x54 modutils/lib.a(insmod.o)
 .text.obj_gpl_license
                0x00050be4       0xc4 modutils/lib.a(insmod.o)
 .text.add_symbols_from
                0x00050ca8       0xdc modutils/lib.a(insmod.o)
 .text.get_modinfo_value
                0x00050d84       0xd0 modutils/lib.a(insmod.o)
 .text.obj_string_patch
                0x00050e54       0xa0 modutils/lib.a(insmod.o)
 .text.new_process_module_arguments
                0x00050ef4      0x5c0 modutils/lib.a(insmod.o)
 .text.new_get_module_version
                0x000514b4       0xcc modutils/lib.a(insmod.o)
 .text.obj_symbol_patch
                0x00051580       0x40 modutils/lib.a(insmod.o)
 .text.new_add_ksymtab
                0x000515c0       0xa4 modutils/lib.a(insmod.o)
 .text.new_create_module_ksymtab
                0x00051664      0x20c modutils/lib.a(insmod.o)
 .text.obj_allocate_commons
                0x00051870      0x2a4 modutils/lib.a(insmod.o)
 .text.obj_load
                0x00051b14      0x458 modutils/lib.a(insmod.o)
 .text.set_tainted
                0x00051f6c       0xc8 modutils/lib.a(insmod.o)
 .text.print_load_map
                0x00052034      0x26c modutils/lib.a(insmod.o)
 .text.insmod_ng_main
                0x000522a0      0x144 modutils/lib.a(insmod.o)
                0x000522a0                insmod_ng_main
 .text.insmod_main
                0x000523e4     0x1864 modutils/lib.a(insmod.o)
                0x000523e4                insmod_main
 .text.lsmod_main
                0x00053c48      0x1dc modutils/lib.a(lsmod.o)
                0x00053c48                lsmod_main
 .text.parse_tag_value
                0x00053e24       0x68 modutils/lib.a(modprobe.o)
 .text.append_option
                0x00053e8c       0x6c modutils/lib.a(modprobe.o)
 .text.include_conf
                0x00053ef8      0x454 modutils/lib.a(modprobe.o)
 .text.already_loaded
                0x0005434c       0xcc modutils/lib.a(modprobe.o)
 .text.mod_process
                0x00054418      0x1d0 modutils/lib.a(modprobe.o)
 .text.check_pattern
                0x000545e8       0x74 modutils/lib.a(modprobe.o)
 .text.check_dep
                0x0005465c      0x1d0 modutils/lib.a(modprobe.o)
 .text.modprobe_main
                0x0005482c      0x764 modutils/lib.a(modprobe.o)
                0x0005482c                modprobe_main
 .text.rmmod_main
                0x00054f90      0x160 modutils/lib.a(rmmod.o)
                0x00054f90                rmmod_main
 .text.arp_main
                0x000550f0      0x9e0 networking/lib.a(arp.o)
                0x000550f0                arp_main
 .text.finish   0x00055ad0       0xc0 networking/lib.a(arping.o)
 .text.catcher  0x00055b90      0x220 networking/lib.a(arping.o)
 .text.arping_main
                0x00055db0      0x948 networking/lib.a(arping.o)
                0x00055db0                arping_main
 .text.interrupt
                0x000566f8       0x18 networking/lib.a(dnsd.o)
 .text.dnsd_main
                0x00056710      0x784 networking/lib.a(dnsd.o)
                0x00056710                dnsd_main
 .text.ether_wake_main
                0x00056e94      0x340 networking/lib.a(ether-wake.o)
                0x00056e94                ether_wake_main
 .text.ftp_die  0x000571d4       0x60 networking/lib.a(ftpgetput.o)
 .text.ftpcmd   0x00057234       0xec networking/lib.a(ftpgetput.o)
 .text.xconnect_ftpdata
                0x00057320       0xa0 networking/lib.a(ftpgetput.o)
 .text.ftp_receive
                0x000573c0      0x230 networking/lib.a(ftpgetput.o)
 .text.ftp_send
                0x000575f0      0x198 networking/lib.a(ftpgetput.o)
 .text.ftpgetput_main
                0x00057788      0x214 networking/lib.a(ftpgetput.o)
                0x00057788                ftpgetput_main
 .text.do_sethostname
                0x0005799c       0xb4 networking/lib.a(hostname.o)
 .text.hostname_main
                0x00057a50      0x144 networking/lib.a(hostname.o)
                0x00057a50                hostname_main
 .text.free_llist
                0x00057b94       0x30 networking/lib.a(httpd.o)
 .text.scan_ip  0x00057bc4       0xe0 networking/lib.a(httpd.o)
 .text.parse_conf
                0x00057ca4      0x5f8 networking/lib.a(httpd.o)
 .text.hex_to_bin
                0x0005829c       0x28 networking/lib.a(httpd.o)
 .text.decodeString
                0x000582c4       0xd4 networking/lib.a(httpd.o)
 .text.log_and_exit
                0x00058398       0x5c networking/lib.a(httpd.o)
 .text.get_line
                0x000583f4       0xa8 networking/lib.a(httpd.o)
 .text.setenv1  0x0005849c       0x18 networking/lib.a(httpd.o)
 .text.send_file_and_exit
                0x000584b4      0x1b8 networking/lib.a(httpd.o)
 .text.send_headers
                0x0005866c      0x2cc networking/lib.a(httpd.o)
 .text.send_headers_and_exit
                0x00058938        0x8 networking/lib.a(httpd.o)
 .text.send_cgi_and_exit
                0x00058940      0x6f0 networking/lib.a(httpd.o)
 .text.checkPermIP
                0x00059030       0x68 networking/lib.a(httpd.o)
 .text.checkPerm
                0x00059098      0x174 networking/lib.a(httpd.o)
 .text.exit_on_signal
                0x0005920c        0x8 networking/lib.a(httpd.o)
 .text.handle_incoming_and_exit
                0x00059214      0x7f4 networking/lib.a(httpd.o)
 .text.httpd_main
                0x00059a08      0x310 networking/lib.a(httpd.o)
                0x00059a08                httpd_main
 .text.ifconfig_main
                0x00059d18      0x5b4 networking/lib.a(ifconfig.o)
                0x00059d18                ifconfig_main
 .text.addstr   0x0005a2cc       0x54 networking/lib.a(ifupdown.o)
 .text.strncmpz
                0x0005a320       0x20 networking/lib.a(ifupdown.o)
 .text.get_var  0x0005a340       0xc8 networking/lib.a(ifupdown.o)
 .text.execute  0x0005a408      0x378 networking/lib.a(ifupdown.o)
 .text.loopback_up6
                0x0005a780       0x4c networking/lib.a(ifupdown.o)
 .text.loopback_down6
                0x0005a7cc       0x14 networking/lib.a(ifupdown.o)
 .text.static_up6
                0x0005a7e0       0x64 networking/lib.a(ifupdown.o)
 .text.static_down6
                0x0005a844       0x14 networking/lib.a(ifupdown.o)
 .text.v4tunnel_up
                0x0005a858       0x7c networking/lib.a(ifupdown.o)
 .text.v4tunnel_down
                0x0005a8d4       0x14 networking/lib.a(ifupdown.o)
 .text.loopback_up
                0x0005a8e8       0x4c networking/lib.a(ifupdown.o)
 .text.loopback_down
                0x0005a934       0x4c networking/lib.a(ifupdown.o)
 .text.static_up
                0x0005a980       0x64 networking/lib.a(ifupdown.o)
 .text.static_down
                0x0005a9e4       0x4c networking/lib.a(ifupdown.o)
 .text.dhcp_up  0x0005aa30       0x40 networking/lib.a(ifupdown.o)
 .text.dhcp_down
                0x0005aa70       0x14 networking/lib.a(ifupdown.o)
 .text.manual_up_down
                0x0005aa84        0x8 networking/lib.a(ifupdown.o)
 .text.bootp_up
                0x0005aa8c       0x14 networking/lib.a(ifupdown.o)
 .text.ppp_up   0x0005aaa0       0x14 networking/lib.a(ifupdown.o)
 .text.ppp_down
                0x0005aab4       0x14 networking/lib.a(ifupdown.o)
 .text.wvdial_up
                0x0005aac8       0x14 networking/lib.a(ifupdown.o)
 .text.wvdial_down
                0x0005aadc       0x14 networking/lib.a(ifupdown.o)
 .text.next_word
                0x0005aaf0       0x84 networking/lib.a(ifupdown.o)
 .text.setlocalenv
                0x0005ab74       0xac networking/lib.a(ifupdown.o)
 .text.set_environ
                0x0005ac20      0x1a8 networking/lib.a(ifupdown.o)
 .text.doit     0x0005adc8       0xc0 networking/lib.a(ifupdown.o)
 .text.execute_all
                0x0005ae88       0x74 networking/lib.a(ifupdown.o)
 .text.check    0x0005aefc        0xc networking/lib.a(ifupdown.o)
 .text.iface_up
                0x0005af08       0x90 networking/lib.a(ifupdown.o)
 .text.iface_down
                0x0005af98       0x90 networking/lib.a(ifupdown.o)
 .text.popen2   0x0005b028      0x1a0 networking/lib.a(ifupdown.o)
 .text.find_iface_state
                0x0005b1c8       0x68 networking/lib.a(ifupdown.o)
 .text.read_iface_state
                0x0005b230       0x74 networking/lib.a(ifupdown.o)
 .text.ifupdown_main
                0x0005b2a4      0xb24 networking/lib.a(ifupdown.o)
                0x0005b2a4                ifupdown_main
 .text.xxstrdup
                0x0005bdc8       0x14 networking/lib.a(inetd.o)
 .text.freeconfig
                0x0005bddc       0x54 networking/lib.a(inetd.o)
 .text.setup    0x0005be30      0x24c networking/lib.a(inetd.o)
 .text.nextline
                0x0005c07c       0x50 networking/lib.a(inetd.o)
 .text.skip     0x0005c0cc       0xbc networking/lib.a(inetd.o)
 .text.new_servtab
                0x0005c188        0x8 networking/lib.a(inetd.o)
 .text.dupconfig
                0x0005c190       0xb0 networking/lib.a(inetd.o)
 .text.getconfigent
                0x0005c240      0x58c networking/lib.a(inetd.o)
 .text.config   0x0005c7cc      0x614 networking/lib.a(inetd.o)
 .text.reapchild
                0x0005cde0       0xf8 networking/lib.a(inetd.o)
 .text.retry    0x0005ced8       0x70 networking/lib.a(inetd.o)
 .text.goaway   0x0005cf48       0x68 networking/lib.a(inetd.o)
 .text.inetd_setproctitle
                0x0005cfb0       0xe8 networking/lib.a(inetd.o)
 .text.inetd_main
                0x0005d098      0x97c networking/lib.a(inetd.o)
                0x0005d098                inetd_main
 .text.dg_badinput
                0x0005da14       0x3c networking/lib.a(inetd.o)
 .text.echo_stream
                0x0005da50       0x4c networking/lib.a(inetd.o)
 .text.echo_dg  0x0005da9c       0x78 networking/lib.a(inetd.o)
 .text.discard_stream
                0x0005db14       0x58 networking/lib.a(inetd.o)
 .text.discard_dg
                0x0005db6c       0x1c networking/lib.a(inetd.o)
 .text.initring
                0x0005db88       0x44 networking/lib.a(inetd.o)
 .text.chargen_stream
                0x0005dbcc       0xb8 networking/lib.a(inetd.o)
 .text.chargen_dg
                0x0005dc84      0x108 networking/lib.a(inetd.o)
 .text.machtime
                0x0005dd8c       0x6c networking/lib.a(inetd.o)
 .text.machtime_stream
                0x0005ddf8       0x2c networking/lib.a(inetd.o)
 .text.machtime_dg
                0x0005de24       0x94 networking/lib.a(inetd.o)
 .text.daytime_stream
                0x0005deb8       0x58 networking/lib.a(inetd.o)
 .text.daytime_dg
                0x0005df10       0xa4 networking/lib.a(inetd.o)
 .text.INET_sprint
                0x0005dfb4       0x58 networking/lib.a(interface.o)
 .text.INET_input
                0x0005e00c        0x8 networking/lib.a(interface.o)
 .text.INET6_sprint
                0x0005e014       0x54 networking/lib.a(interface.o)
 .text.INET6_input
                0x0005e068        0x4 networking/lib.a(interface.o)
 .text.UNSPEC_print
                0x0005e06c       0x58 networking/lib.a(interface.o)
 .text.UNSPEC_sprint
                0x0005e0c4       0x28 networking/lib.a(interface.o)
 .text.get_aftype
                0x0005e0ec       0x50 networking/lib.a(interface.o)
                0x0005e0ec                get_aftype
 .text.get_afntype
                0x0005e13c       0x3c networking/lib.a(interface.o)
 .text.add_interface
                0x0005e178       0xa4 networking/lib.a(interface.o)
 .text.if_readconf
                0x0005e21c       0xdc networking/lib.a(interface.o)
 .text.if_readlist_proc
                0x0005e2f8      0x2f0 networking/lib.a(interface.o)
 .text.do_if_fetch
                0x0005e5e8      0x334 networking/lib.a(interface.o)
 .text.pr_ether
                0x0005e91c       0x54 networking/lib.a(interface.o)
 .text.hexchar2int
                0x0005e970       0x2c networking/lib.a(interface.o)
 .text.in_ether
                0x0005e99c       0xcc networking/lib.a(interface.o)
 .text.get_hwtype
                0x0005ea68       0x50 networking/lib.a(interface.o)
                0x0005ea68                get_hwtype
 .text.get_hwntype
                0x0005eab8       0x3c networking/lib.a(interface.o)
                0x0005eab8                get_hwntype
 .text.print_bytes_scaled
                0x0005eaf4       0x9c networking/lib.a(interface.o)
 .text.ife_print
                0x0005eb90      0x5c8 networking/lib.a(interface.o)
 .text.display_interfaces
                0x0005f158       0xcc networking/lib.a(interface.o)
                0x0005f158                display_interfaces
 .text.ip_print_help
                0x0005f224        0x8 networking/lib.a(ip.o)
 .text.ip_do    0x0005f22c       0x44 networking/lib.a(ip.o)
 .text.ipaddr_main
                0x0005f270       0x18 networking/lib.a(ip.o)
                0x0005f270                ipaddr_main
 .text.iplink_main
                0x0005f288       0x18 networking/lib.a(ip.o)
                0x0005f288                iplink_main
 .text.iproute_main
                0x0005f2a0       0x18 networking/lib.a(ip.o)
                0x0005f2a0                iproute_main
 .text.iprule_main
                0x0005f2b8       0x18 networking/lib.a(ip.o)
                0x0005f2b8                iprule_main
 .text.iptunnel_main
                0x0005f2d0       0x18 networking/lib.a(ip.o)
                0x0005f2d0                iptunnel_main
 .text.ip_main  0x0005f2e8       0xd8 networking/lib.a(ip.o)
                0x0005f2e8                ip_main
 .text.ipcalc_main
                0x0005f3c0      0x310 networking/lib.a(ipcalc.o)
                0x0005f3c0                ipcalc_main
 .text.new_peer
                0x0005f6d0       0x78 networking/lib.a(isrv_identd.o)
 .text.do_rd    0x0005f748      0x108 networking/lib.a(isrv_identd.o)
 .text.do_timeout
                0x0005f850        0x8 networking/lib.a(isrv_identd.o)
 .text.fakeidentd_main
                0x0005f858      0x16c networking/lib.a(isrv_identd.o)
                0x0005f858                fakeidentd_main
 .text.cc_macaddr
                0x0005f9c4       0x40 networking/lib.a(nameif.o)
 .text.nameif_main
                0x0005fa04      0x2f8 networking/lib.a(nameif.o)
                0x0005fa04                nameif_main
 .text.timeout  0x0005fcfc       0x10 networking/lib.a(nc.o)
 .text.nc_main  0x0005fd0c      0x500 networking/lib.a(nc.o)
                0x0005fd0c                nc_main
 .text.build_ipv6_addr
                0x0006020c       0x74 networking/lib.a(netstat.o)
 .text.build_ipv4_addr
                0x00060280       0x2c networking/lib.a(netstat.o)
 .text.ip_port_str
                0x000602ac       0x9c networking/lib.a(netstat.o)
 .text.tcp_do_one
                0x00060348      0x1bc networking/lib.a(netstat.o)
 .text.udp_do_one
                0x00060504      0x220 networking/lib.a(netstat.o)
 .text.raw_do_one
                0x00060724      0x204 networking/lib.a(netstat.o)
 .text.unix_do_one
                0x00060928      0x34c networking/lib.a(netstat.o)
 .text.do_info  0x00060c74       0xb0 networking/lib.a(netstat.o)
 .text.netstat_main
                0x00060d24      0x268 networking/lib.a(netstat.o)
                0x00060d24                netstat_main
 .text.print_host
                0x00060f8c       0xe8 networking/lib.a(nslookup.o)
 .text.nslookup_main
                0x00061074       0xb4 networking/lib.a(nslookup.o)
                0x00061074                nslookup_main
 .text.pingstats
                0x00061128      0x154 networking/lib.a(ping.o)
 .text.sendping_tail
                0x0006127c       0xbc networking/lib.a(ping.o)
 .text.sendping4
                0x00061338      0x128 networking/lib.a(ping.o)
 .text.sendping6
                0x00061460       0xa0 networking/lib.a(ping.o)
 .text.unpack_tail
                0x00061500      0x168 networking/lib.a(ping.o)
 .text.ping_main
                0x00061668      0x81c networking/lib.a(ping.o)
                0x00061668                ping_main
 .text.ping6_main
                0x00061e84       0x14 networking/lib.a(ping.o)
                0x00061e84                ping6_main
 .text.pscan_main
                0x00061e98      0x2bc networking/lib.a(pscan.o)
                0x00061e98                pscan_main
 .text.kw_lookup
                0x00062154       0x78 networking/lib.a(route.o)
 .text.set_flags
                0x000621cc       0x54 networking/lib.a(route.o)
 .text.bb_displayroutes
                0x00062220      0x1f4 networking/lib.a(route.o)
                0x00062220                bb_displayroutes
 .text.route_main
                0x00062414      0x9b0 networking/lib.a(route.o)
                0x00062414                route_main
 .text.set_termios_state_and_warn
                0x00062dc4       0x3c networking/lib.a(slattach.o)
 .text.restore_state_and_exit
                0x00062e00       0x8c networking/lib.a(slattach.o)
 .text.sig_handler
                0x00062e8c        0xc networking/lib.a(slattach.o)
 .text.slattach_main
                0x00062e98      0x2cc networking/lib.a(slattach.o)
                0x00062e98                slattach_main
 .text.iacflush
                0x00063164       0x3c networking/lib.a(telnet.o)
 .text.putiac   0x000631a0       0x34 networking/lib.a(telnet.o)
 .text.putiac2  0x000631d4       0x50 networking/lib.a(telnet.o)
 .text.fgotsig  0x00063224       0x10 networking/lib.a(telnet.o)
 .text.rawmode  0x00063234       0x24 networking/lib.a(telnet.o)
 .text.cookmode
                0x00063258       0x24 networking/lib.a(telnet.o)
 .text.setConMode
                0x0006327c       0x70 networking/lib.a(telnet.o)
 .text.doexit   0x000632ec       0x14 networking/lib.a(telnet.o)
 .text.conescape
                0x00063300      0x148 networking/lib.a(telnet.o)
 .text.telnet_main
                0x00063448      0x788 networking/lib.a(telnet.o)
                0x00063448                telnet_main
 .text.send_iac
                0x00063bd0       0x40 networking/lib.a(telnetd.o)
 .text.make_new_session
                0x00063c10      0x280 networking/lib.a(telnetd.o)
 .text.free_session
                0x00063e90       0xdc networking/lib.a(telnetd.o)
 .text.telnetd_main
                0x00063f6c      0x6b4 networking/lib.a(telnetd.o)
                0x00063f6c                telnetd_main
 .text.tftp_blocksize_check
                0x00064620       0x50 networking/lib.a(tftp.o)
 .text.tftp     0x00064670      0x628 networking/lib.a(tftp.o)
 .text.tftp_main
                0x00064c98      0x180 networking/lib.a(tftp.o)
                0x00064c98                tftp_main
 .text.ifaddrlist
                0x00064e18      0x1a8 networking/lib.a(traceroute.o)
 .text.setsin   0x00064fc0       0x30 networking/lib.a(traceroute.o)
 .text.in_cksum
                0x00064ff0       0x58 networking/lib.a(traceroute.o)
 .text.gethostinfo
                0x00065048      0x100 networking/lib.a(traceroute.o)
 .text.freehostinfo
                0x00065148       0x24 networking/lib.a(traceroute.o)
 .text.traceroute_main
                0x0006516c      0xf68 networking/lib.a(traceroute.o)
                0x0006516c                traceroute_main
 .text.xfind_str
                0x000660d4       0x3c networking/lib.a(vconfig.o)
 .text.vconfig_main
                0x00066110      0x16c networking/lib.a(vconfig.o)
                0x00066110                vconfig_main
 .text.safe_fgets
                0x0006627c       0x60 networking/lib.a(wget.o)
 .text.base64enc_512
                0x000662dc       0x44 networking/lib.a(wget.o)
 .text.parse_url
                0x00066320      0x184 networking/lib.a(wget.o)
 .text.open_socket
                0x000664a4       0x28 networking/lib.a(wget.o)
 .text.gethdr   0x000664cc      0x108 networking/lib.a(wget.o)
 .text.ftpcmd   0x000665d4       0xb4 networking/lib.a(wget.o)
 .text.alarmtimer
                0x00066688       0x38 networking/lib.a(wget.o)
 .text.progressmeter
                0x000666c0      0x438 networking/lib.a(wget.o)
 .text.wget_main
                0x00066af8      0xbb0 networking/lib.a(wget.o)
                0x00066af8                wget_main
 .text.updateprogressmeter
                0x000676a8       0x24 networking/lib.a(wget.o)
 .text.pick     0x000676cc       0x48 networking/lib.a(zcip.o)
 .text.arp      0x00067714      0x100 networking/lib.a(zcip.o)
 .text.run      0x00067814       0xa8 networking/lib.a(zcip.o)
 .text.zcip_main
                0x000678bc      0x628 networking/lib.a(zcip.o)
                0x000678bc                zcip_main
 .text.isrv_want_rd
                0x00067ee4       0x20 networking/lib.a(isrv.o)
                0x00067ee4                isrv_want_rd
 .text.isrv_want_wr
                0x00067f04       0x34 networking/lib.a(isrv.o)
                0x00067f04                isrv_want_wr
 .text.isrv_dont_want_rd
                0x00067f38       0x20 networking/lib.a(isrv.o)
                0x00067f38                isrv_dont_want_rd
 .text.isrv_dont_want_wr
                0x00067f58       0x34 networking/lib.a(isrv.o)
                0x00067f58                isrv_dont_want_wr
 .text.isrv_register_fd
                0x00067f8c       0x88 networking/lib.a(isrv.o)
                0x00067f8c                isrv_register_fd
 .text.isrv_close_fd
                0x00068014       0x9c networking/lib.a(isrv.o)
                0x00068014                isrv_close_fd
 .text.isrv_register_peer
                0x000680b0       0x68 networking/lib.a(isrv.o)
                0x000680b0                isrv_register_peer
 .text.remove_peer
                0x00068118       0xf4 networking/lib.a(isrv.o)
 .text.handle_fd_set
                0x0006820c      0x170 networking/lib.a(isrv.o)
 .text.isrv_run
                0x0006837c      0x1f4 networking/lib.a(isrv.o)
                0x0006837c                isrv_run
 .text.ip_parse_common_args
                0x00068570      0x164 networking/libiproute/lib.a(ip_parse_common_args.o)
                0x00068570                ip_parse_common_args
 .text.flush_update
                0x000686d4       0x44 networking/libiproute/lib.a(ipaddress.o)
 .text.print_addrinfo
                0x00068718      0x624 networking/libiproute/lib.a(ipaddress.o)
 .text.store_nlmsg
                0x00068d3c       0x70 networking/libiproute/lib.a(ipaddress.o)
 .text.ipaddr_list_or_flush
                0x00068dac      0xaa0 networking/libiproute/lib.a(ipaddress.o)
                0x00068dac                ipaddr_list_or_flush
 .text.ipaddr_modify
                0x0006984c      0x574 networking/libiproute/lib.a(ipaddress.o)
 .text.do_ipaddr
                0x00069dc0       0x9c networking/libiproute/lib.a(ipaddress.o)
                0x00069dc0                do_ipaddr
 .text.on_off   0x00069e5c       0x14 networking/libiproute/lib.a(iplink.o)
 .text.get_ctl_fd
                0x00069e70       0x50 networking/libiproute/lib.a(iplink.o)
 .text.parse_address
                0x00069ec0       0x7c networking/libiproute/lib.a(iplink.o)
 .text.set_address
                0x00069f3c       0x50 networking/libiproute/lib.a(iplink.o)
 .text.ipaddr_list_link
                0x00069f8c       0x18 networking/libiproute/lib.a(iplink.o)
 .text.do_iplink
                0x00069fa4      0x4dc networking/libiproute/lib.a(iplink.o)
                0x00069fa4                do_iplink
 .text.flush_update
                0x0006a480       0x44 networking/libiproute/lib.a(iproute.o)
 .text.print_route
                0x0006a4c4      0x850 networking/libiproute/lib.a(iproute.o)
 .text.iproute_reset_filter
                0x0006ad14       0x34 networking/libiproute/lib.a(iproute.o)
 .text.iproute_list_or_flush
                0x0006ad48      0x584 networking/libiproute/lib.a(iproute.o)
 .text.do_iproute
                0x0006b2cc      0x9c0 networking/libiproute/lib.a(iproute.o)
                0x0006b2cc                do_iproute
 .text.print_rule
                0x0006bc8c      0x3ac networking/libiproute/lib.a(iprule.o)
 .text.iprule_list
                0x0006c038       0x74 networking/libiproute/lib.a(iprule.o)
 .text.do_iprule
                0x0006c0ac      0x4ec networking/libiproute/lib.a(iprule.o)
                0x0006c0ac                do_iprule
 .text.do_get_ioctl
                0x0006c598       0x64 networking/libiproute/lib.a(iptunnel.o)
 .text.do_add_ioctl
                0x0006c5fc       0x94 networking/libiproute/lib.a(iptunnel.o)
 .text.do_del_ioctl
                0x0006c690       0x74 networking/libiproute/lib.a(iptunnel.o)
 .text.parse_args
                0x0006c704      0x7b4 networking/libiproute/lib.a(iptunnel.o)
 .text.do_add   0x0006ceb8       0xac networking/libiproute/lib.a(iptunnel.o)
 .text.print_tunnel
                0x0006cf64      0x2fc networking/libiproute/lib.a(iptunnel.o)
 .text.do_iptunnel
                0x0006d260      0x444 networking/libiproute/lib.a(iptunnel.o)
                0x0006d260                do_iptunnel
 .text.rtnl_close
                0x0006d6a4        0x8 networking/libiproute/lib.a(libnetlink.o)
                0x0006d6a4                rtnl_close
 .text.xrtnl_open
                0x0006d6ac       0xcc networking/libiproute/lib.a(libnetlink.o)
                0x0006d6ac                xrtnl_open
 .text.xrtnl_wilddump_request
                0x0006d778       0x9c networking/libiproute/lib.a(libnetlink.o)
                0x0006d778                xrtnl_wilddump_request
 .text.rtnl_send
                0x0006d814       0x5c networking/libiproute/lib.a(libnetlink.o)
                0x0006d814                rtnl_send
 .text.rtnl_dump_request
                0x0006d870       0xc8 networking/libiproute/lib.a(libnetlink.o)
                0x0006d870                rtnl_dump_request
 .text.xrtnl_dump_filter
                0x0006d938      0x214 networking/libiproute/lib.a(libnetlink.o)
                0x0006d938                xrtnl_dump_filter
 .text.rtnl_talk
                0x0006db4c      0x33c networking/libiproute/lib.a(libnetlink.o)
                0x0006db4c                rtnl_talk
 .text.addattr32
                0x0006de88       0x6c networking/libiproute/lib.a(libnetlink.o)
                0x0006de88                addattr32
 .text.addattr_l
                0x0006def4       0x7c networking/libiproute/lib.a(libnetlink.o)
                0x0006def4                addattr_l
 .text.rta_addattr32
                0x0006df70       0x7c networking/libiproute/lib.a(libnetlink.o)
                0x0006df70                rta_addattr32
 .text.rta_addattr_l
                0x0006dfec       0x8c networking/libiproute/lib.a(libnetlink.o)
                0x0006dfec                rta_addattr_l
 .text.parse_rtattr
                0x0006e078       0x88 networking/libiproute/lib.a(libnetlink.o)
                0x0006e078                parse_rtattr
 .text.ll_addr_n2a
                0x0006e100       0xc8 networking/libiproute/lib.a(ll_addr.o)
                0x0006e100                ll_addr_n2a
 .text.ll_addr_a2n
                0x0006e1c8       0xe4 networking/libiproute/lib.a(ll_addr.o)
                0x0006e1c8                ll_addr_a2n
 .text.find_by_index
                0x0006e2ac       0x38 networking/libiproute/lib.a(ll_map.o)
 .text.ll_remember_index
                0x0006e2e4      0x13c networking/libiproute/lib.a(ll_map.o)
                0x0006e2e4                ll_remember_index
 .text.ll_idx_n2a
                0x0006e420       0x4c networking/libiproute/lib.a(ll_map.o)
                0x0006e420                ll_idx_n2a
 .text.ll_index_to_name
                0x0006e46c        0xc networking/libiproute/lib.a(ll_map.o)
                0x0006e46c                ll_index_to_name
 .text.ll_index_to_flags
                0x0006e478       0x24 networking/libiproute/lib.a(ll_map.o)
                0x0006e478                ll_index_to_flags
 .text.xll_name_to_index
                0x0006e49c       0x88 networking/libiproute/lib.a(ll_map.o)
                0x0006e49c                xll_name_to_index
 .text.ll_init_map
                0x0006e524       0x34 networking/libiproute/lib.a(ll_map.o)
                0x0006e524                ll_init_map
 .text.ll_type_n2a
                0x0006e558       0x60 networking/libiproute/lib.a(ll_types.o)
                0x0006e558                ll_type_n2a
 .text.rtnl_tab_initialize
                0x0006e5b8      0x150 networking/libiproute/lib.a(rt_names.o)
 .text.rtnl_rtprot_initialize
                0x0006e708       0x70 networking/libiproute/lib.a(rt_names.o)
 .text.rtnl_rtprot_n2a
                0x0006e778       0x6c networking/libiproute/lib.a(rt_names.o)
                0x0006e778                rtnl_rtprot_n2a
 .text.rtnl_rtprot_a2n
                0x0006e7e4       0xd8 networking/libiproute/lib.a(rt_names.o)
                0x0006e7e4                rtnl_rtprot_a2n
 .text.rtnl_rtscope_initialize
                0x0006e8bc       0x7c networking/libiproute/lib.a(rt_names.o)
 .text.rtnl_rtscope_n2a
                0x0006e938       0x6c networking/libiproute/lib.a(rt_names.o)
                0x0006e938                rtnl_rtscope_n2a
 .text.rtnl_rtscope_a2n
                0x0006e9a4       0xd8 networking/libiproute/lib.a(rt_names.o)
                0x0006e9a4                rtnl_rtscope_a2n
 .text.rtnl_rtrealm_initialize
                0x0006ea7c       0x4c networking/libiproute/lib.a(rt_names.o)
 .text.rtnl_rtrealm_a2n
                0x0006eac8       0xd8 networking/libiproute/lib.a(rt_names.o)
                0x0006eac8                rtnl_rtrealm_a2n
 .text.rtnl_rtrealm_n2a
                0x0006eba0       0x6c networking/libiproute/lib.a(rt_names.o)
                0x0006eba0                rtnl_rtrealm_n2a
 .text.rtnl_rtdsfield_initialize
                0x0006ec0c       0x4c networking/libiproute/lib.a(rt_names.o)
 .text.rtnl_dsfield_n2a
                0x0006ec58       0x70 networking/libiproute/lib.a(rt_names.o)
                0x0006ec58                rtnl_dsfield_n2a
 .text.rtnl_dsfield_a2n
                0x0006ecc8       0xd8 networking/libiproute/lib.a(rt_names.o)
                0x0006ecc8                rtnl_dsfield_a2n
 .text.rtnl_rttable_initialize
                0x0006eda0       0x78 networking/libiproute/lib.a(rt_names.o)
 .text.rtnl_rttable_n2a
                0x0006ee18       0x6c networking/libiproute/lib.a(rt_names.o)
                0x0006ee18                rtnl_rttable_n2a
 .text.rtnl_rttable_a2n
                0x0006ee84       0xd8 networking/libiproute/lib.a(rt_names.o)
                0x0006ee84                rtnl_rttable_a2n
 .text.rtnl_rtntype_n2a
                0x0006ef5c       0xf4 networking/libiproute/lib.a(rtm_map.o)
                0x0006ef5c                rtnl_rtntype_n2a
 .text.rtnl_rtntype_a2n
                0x0006f050       0xf4 networking/libiproute/lib.a(rtm_map.o)
                0x0006f050                rtnl_rtntype_a2n
 .text.get_rt_realms
                0x0006f144       0xac networking/libiproute/lib.a(rtm_map.o)
                0x0006f144                get_rt_realms
 .text.get_integer
                0x0006f1f0       0x64 networking/libiproute/lib.a(utils.o)
                0x0006f1f0                get_integer
 .text.get_unsigned
                0x0006f254       0x64 networking/libiproute/lib.a(utils.o)
                0x0006f254                get_unsigned
 .text.get_u32  0x0006f2b8       0x64 networking/libiproute/lib.a(utils.o)
                0x0006f2b8                get_u32
 .text.get_u16  0x0006f31c       0x80 networking/libiproute/lib.a(utils.o)
                0x0006f31c                get_u16
 .text.get_u8   0x0006f39c       0x70 networking/libiproute/lib.a(utils.o)
                0x0006f39c                get_u8
 .text.get_s16  0x0006f40c       0x8c networking/libiproute/lib.a(utils.o)
                0x0006f40c                get_s16
 .text.get_s8   0x0006f498       0x78 networking/libiproute/lib.a(utils.o)
                0x0006f498                get_s8
 .text.get_addr_1
                0x0006f510      0x184 networking/libiproute/lib.a(utils.o)
                0x0006f510                get_addr_1
 .text.get_prefix_1
                0x0006f694      0x10c networking/libiproute/lib.a(utils.o)
                0x0006f694                get_prefix_1
 .text.get_addr
                0x0006f7a0       0x34 networking/libiproute/lib.a(utils.o)
                0x0006f7a0                get_addr
 .text.get_prefix
                0x0006f7d4       0x34 networking/libiproute/lib.a(utils.o)
                0x0006f7d4                get_prefix
 .text.get_addr32
                0x0006f808       0x3c networking/libiproute/lib.a(utils.o)
                0x0006f808                get_addr32
 .text.incomplete_command
                0x0006f844        0xc networking/libiproute/lib.a(utils.o)
                0x0006f844                incomplete_command
 .text.invarg   0x0006f850       0x14 networking/libiproute/lib.a(utils.o)
                0x0006f850                invarg
 .text.duparg   0x0006f864       0x14 networking/libiproute/lib.a(utils.o)
                0x0006f864                duparg
 .text.duparg2  0x0006f878       0x14 networking/libiproute/lib.a(utils.o)
                0x0006f878                duparg2
 .text.inet_addr_match
                0x0006f88c       0x88 networking/libiproute/lib.a(utils.o)
                0x0006f88c                inet_addr_match
 .text.rt_addr_n2a
                0x0006f914       0x28 networking/libiproute/lib.a(utils.o)
                0x0006f914                rt_addr_n2a
 .text.format_host
                0x0006f93c        0xc networking/libiproute/lib.a(utils.o)
                0x0006f93c                format_host
 .text.change_mode
                0x0006f948       0x3c networking/udhcp/lib.a(dhcpc.o)
 .text.perform_release
                0x0006f984       0xb4 networking/udhcp/lib.a(dhcpc.o)
 .text.client_background
                0x0006fa38       0x44 networking/udhcp/lib.a(dhcpc.o)
 .text.alloc_dhcp_option
                0x0006fa7c       0x58 networking/udhcp/lib.a(dhcpc.o)
 .text.udhcpc_main
                0x0006fad4      0xa8c networking/udhcp/lib.a(dhcpc.o)
                0x0006fad4                udhcpc_main
 .text.udhcpd_main
                0x00070560      0x58c networking/udhcp/lib.a(dhcpd.o)
                0x00070560                udhcpd_main
 .text.get_dhcp_packet_type
                0x00070aec       0x34 networking/udhcp/lib.a(dhcprelay.o)
 .text.dhcprelay_signal_handler
                0x00070b20       0x14 networking/udhcp/lib.a(dhcprelay.o)
 .text.dhcprelay_main
                0x00070b34      0x544 networking/udhcp/lib.a(dhcprelay.o)
                0x00070b34                dhcprelay_main
 .text.dumpleases_main
                0x00071078      0x1dc networking/udhcp/lib.a(dumpleases.o)
                0x00071078                dumpleases_main
 .text.read_ip  0x00071254       0x38 networking/udhcp/lib.a(files.o)
 .text.read_str
                0x0007128c       0x28 networking/udhcp/lib.a(files.o)
 .text.read_u32
                0x000712b4       0x34 networking/udhcp/lib.a(files.o)
 .text.read_yn  0x000712e8       0x58 networking/udhcp/lib.a(files.o)
 .text.find_option
                0x00071340       0x48 networking/udhcp/lib.a(files.o)
                0x00071340                find_option
 .text.read_opt
                0x00071388      0x3e0 networking/udhcp/lib.a(files.o)
 .text.read_staticlease
                0x00071768       0x74 networking/udhcp/lib.a(files.o)
 .text.read_config
                0x000717dc      0x1e0 networking/udhcp/lib.a(files.o)
                0x000717dc                read_config
 .text.write_leases
                0x000719bc      0x140 networking/udhcp/lib.a(files.o)
                0x000719bc                write_leases
 .text.read_leases
                0x00071afc      0x104 networking/udhcp/lib.a(files.o)
                0x00071afc                read_leases
 .text.add_lease
                0x00071c00      0x170 networking/udhcp/lib.a(leases.o)
                0x00071c00                add_lease
 .text.lease_expired
                0x00071d70       0x24 networking/udhcp/lib.a(leases.o)
                0x00071d70                lease_expired
 .text.find_lease_by_chaddr
                0x00071d94       0x70 networking/udhcp/lib.a(leases.o)
                0x00071d94                find_lease_by_chaddr
 .text.find_lease_by_yiaddr
                0x00071e04       0x5c networking/udhcp/lib.a(leases.o)
                0x00071e04                find_lease_by_yiaddr
 .text.find_address
                0x00071e60       0xf8 networking/udhcp/lib.a(leases.o)
                0x00071e60                find_address
 .text.udhcp_get_option
                0x00071f58      0x11c networking/udhcp/lib.a(options.o)
                0x00071f58                udhcp_get_option
 .text.udhcp_end_option
                0x00072074       0x3c networking/udhcp/lib.a(options.o)
                0x00072074                udhcp_end_option
 .text.udhcp_add_option_string
                0x000720b0       0x70 networking/udhcp/lib.a(options.o)
                0x000720b0                udhcp_add_option_string
 .text.udhcp_add_simple_option
                0x00072120       0x98 networking/udhcp/lib.a(options.o)
                0x00072120                udhcp_add_simple_option
 .text.udhcp_init_header
                0x000721b8       0x84 networking/udhcp/lib.a(packet.o)
                0x000721b8                udhcp_init_header
 .text.udhcp_get_packet
                0x0007223c       0xd4 networking/udhcp/lib.a(packet.o)
                0x0007223c                udhcp_get_packet
 .text.udhcp_checksum
                0x00072310       0x78 networking/udhcp/lib.a(packet.o)
                0x00072310                udhcp_checksum
 .text.udhcp_raw_packet
                0x00072388      0x21c networking/udhcp/lib.a(packet.o)
                0x00072388                udhcp_raw_packet
 .text.udhcp_kernel_packet
                0x000725a4      0x11c networking/udhcp/lib.a(packet.o)
                0x000725a4                udhcp_kernel_packet
 .text.sprintip
                0x000726c0       0x38 networking/udhcp/lib.a(script.o)
 .text.udhcp_run_script
                0x000726f8      0x61c networking/udhcp/lib.a(script.o)
                0x000726f8                udhcp_run_script
 .text.send_packet
                0x00072d14       0xa8 networking/udhcp/lib.a(serverpacket.o)
 .text.init_packet
                0x00072dbc       0x70 networking/udhcp/lib.a(serverpacket.o)
 .text.add_bootp_options
                0x00072e2c       0x48 networking/udhcp/lib.a(serverpacket.o)
 .text.sendOffer
                0x00072e74      0x258 networking/udhcp/lib.a(serverpacket.o)
                0x00072e74                sendOffer
 .text.sendNAK  0x000730cc       0x30 networking/udhcp/lib.a(serverpacket.o)
                0x000730cc                sendNAK
 .text.sendACK  0x000730fc      0x144 networking/udhcp/lib.a(serverpacket.o)
                0x000730fc                sendACK
 .text.send_inform
                0x00073240       0x68 networking/udhcp/lib.a(serverpacket.o)
                0x00073240                send_inform
 .text.signal_handler
                0x000732a8       0x3c networking/udhcp/lib.a(signalpipe.o)
 .text.udhcp_sp_setup
                0x000732e4       0x74 networking/udhcp/lib.a(signalpipe.o)
                0x000732e4                udhcp_sp_setup
 .text.udhcp_sp_fd_set
                0x00073358       0x84 networking/udhcp/lib.a(signalpipe.o)
                0x00073358                udhcp_sp_fd_set
 .text.udhcp_sp_read
                0x000733dc       0x54 networking/udhcp/lib.a(signalpipe.o)
                0x000733dc                udhcp_sp_read
 .text.udhcp_read_interface
                0x00073430      0x12c networking/udhcp/lib.a(socket.o)
                0x00073430                udhcp_read_interface
 .text.udhcp_listen_socket
                0x0007355c       0xe0 networking/udhcp/lib.a(socket.o)
                0x0007355c                udhcp_listen_socket
 .text.addStaticLease
                0x0007363c       0x54 networking/udhcp/lib.a(static_leases.o)
                0x0007363c                addStaticLease
 .text.getIpByMac
                0x00073690       0x44 networking/udhcp/lib.a(static_leases.o)
                0x00073690                getIpByMac
 .text.reservedIp
                0x000736d4       0x30 networking/udhcp/lib.a(static_leases.o)
                0x000736d4                reservedIp
 .text.arpping  0x00073704      0x288 networking/udhcp/lib.a(arpping.o)
                0x00073704                arpping
 .text.random_xid
                0x0007398c       0x30 networking/udhcp/lib.a(clientpacket.o)
                0x0007398c                random_xid
 .text.init_packet
                0x000739bc       0x70 networking/udhcp/lib.a(clientpacket.o)
 .text.add_requests
                0x00073a2c       0x78 networking/udhcp/lib.a(clientpacket.o)
 .text.send_discover
                0x00073aa4       0x88 networking/udhcp/lib.a(clientpacket.o)
                0x00073aa4                send_discover
 .text.send_selecting
                0x00073b2c       0xa8 networking/udhcp/lib.a(clientpacket.o)
                0x00073b2c                send_selecting
 .text.send_renew
                0x00073bd4       0xa4 networking/udhcp/lib.a(clientpacket.o)
                0x00073bd4                send_renew
 .text.send_release
                0x00073c78       0x80 networking/udhcp/lib.a(clientpacket.o)
                0x00073c78                send_release
 .text.get_raw_packet
                0x00073cf8      0x1c4 networking/udhcp/lib.a(clientpacket.o)
                0x00073cf8                get_raw_packet
 .text.raw_socket
                0x00073ebc       0x5c networking/udhcp/lib.a(clientsocket.o)
                0x00073ebc                raw_socket
 .text.dname_dec
                0x00073f18      0x19c networking/udhcp/lib.a(domain_codec.o)
                0x00073f18                dname_dec
 .text.dname_enc
                0x000740b4      0x1fc networking/udhcp/lib.a(domain_codec.o)
                0x000740b4                dname_enc
 .text.free_main
                0x000742b0      0x1c0 procps/lib.a(free.o)
                0x000742b0                free_main
 .text.fuser_file_to_dev_inode
                0x00074470       0x50 procps/lib.a(fuser.o)
 .text.fuser_add_pid
                0x000744c0       0x54 procps/lib.a(fuser.o)
 .text.fuser_add_inode
                0x00074514       0xbc procps/lib.a(fuser.o)
 .text.fuser_search_dev_inode
                0x000745d0       0x90 procps/lib.a(fuser.o)
 .text.fuser_scan_link
                0x00074660       0x6c procps/lib.a(fuser.o)
 .text.fuser_scan_dir_links
                0x000746cc       0x8c procps/lib.a(fuser.o)
 .text.fuser_main
                0x00074758      0x660 procps/lib.a(fuser.o)
                0x00074758                fuser_main
 .text.kill_main
                0x00074db8      0x358 procps/lib.a(kill.o)
                0x00074db8                kill_main
 .text.put      0x00075110       0x54 procps/lib.a(nmeter.o)
 .text.put_c    0x00075164       0x2c procps/lib.a(nmeter.o)
 .text.put_question_marks
                0x00075190       0x24 procps/lib.a(nmeter.o)
 .text.get_file
                0x000751b4       0xb8 procps/lib.a(nmeter.o)
 .text.vrdval   0x0007526c       0xdc procps/lib.a(nmeter.o)
 .text.rdval    0x00075348       0x30 procps/lib.a(nmeter.o)
 .text.rdval_loadavg
                0x00075378       0x38 procps/lib.a(nmeter.o)
 .text.scale    0x000753b0       0x24 procps/lib.a(nmeter.o)
 .text.collect_literal
                0x000753d4        0x4 procps/lib.a(nmeter.o)
 .text.init_delay
                0x000753d8       0x64 procps/lib.a(nmeter.o)
 .text.init_cr  0x0007543c       0x20 procps/lib.a(nmeter.o)
 .text.collect_cpu
                0x0007545c      0x2f8 procps/lib.a(nmeter.o)
 .text.init_cpu
                0x00075754       0x6c procps/lib.a(nmeter.o)
 .text.collect_int
                0x000757c0       0x98 procps/lib.a(nmeter.o)
 .text.init_int
                0x00075858       0x54 procps/lib.a(nmeter.o)
 .text.collect_ctx
                0x000758ac       0x98 procps/lib.a(nmeter.o)
 .text.init_ctx
                0x00075944       0x1c procps/lib.a(nmeter.o)
 .text.collect_blk
                0x00075960      0x22c procps/lib.a(nmeter.o)
 .text.init_blk
                0x00075b8c       0x28 procps/lib.a(nmeter.o)
 .text.collect_thread_nr
                0x00075bb4       0x4c procps/lib.a(nmeter.o)
 .text.collect_fork
                0x00075c00       0x98 procps/lib.a(nmeter.o)
 .text.init_fork
                0x00075c98       0x34 procps/lib.a(nmeter.o)
 .text.collect_if
                0x00075ccc      0x108 procps/lib.a(nmeter.o)
 .text.init_if  0x00075dd4       0x6c procps/lib.a(nmeter.o)
 .text.collect_mem
                0x00075e40      0x178 procps/lib.a(nmeter.o)
 .text.init_mem
                0x00075fb8       0x28 procps/lib.a(nmeter.o)
 .text.collect_swp
                0x00075fe0       0x9c procps/lib.a(nmeter.o)
 .text.init_swp
                0x0007607c       0x1c procps/lib.a(nmeter.o)
 .text.collect_fd
                0x00076098       0x78 procps/lib.a(nmeter.o)
 .text.init_fd  0x00076110       0x1c procps/lib.a(nmeter.o)
 .text.collect_time
                0x0007612c       0xb8 procps/lib.a(nmeter.o)
 .text.init_time
                0x000761e4       0x6c procps/lib.a(nmeter.o)
 .text.collect_info
                0x00076250       0x48 procps/lib.a(nmeter.o)
 .text.nmeter_main
                0x00076298      0x3b8 procps/lib.a(nmeter.o)
                0x00076298                nmeter_main
 .text.pidof_main
                0x00076650      0x160 procps/lib.a(pidof.o)
                0x00076650                pidof_main
 .text.ps_main  0x000767b0      0x144 procps/lib.a(ps.o)
                0x000767b0                ps_main
 .text.renice_main
                0x000768f4      0x19c procps/lib.a(renice.o)
                0x000768f4                renice_main
 .text.dwrite_str
                0x00076a90       0x28 procps/lib.a(sysctl.o)
 .text.sysctl_write_setting
                0x00076ab8      0x1e4 procps/lib.a(sysctl.o)
 .text.sysctl_read_setting
                0x00076c9c      0x190 procps/lib.a(sysctl.o)
 .text.sysctl_display_all
                0x00076e2c       0xd0 procps/lib.a(sysctl.o)
 .text.sysctl_main
                0x00076efc      0x2a8 procps/lib.a(sysctl.o)
                0x00076efc                sysctl_main
 .text.pid_sort
                0x000771a4       0x10 procps/lib.a(top.o)
 .text.mem_sort
                0x000771b4       0x20 procps/lib.a(top.o)
 .text.pcpu_sort
                0x000771d4       0x10 procps/lib.a(top.o)
 .text.time_sort
                0x000771e4       0x20 procps/lib.a(top.o)
 .text.mult_lvl_cmp
                0x00077204       0x40 procps/lib.a(top.o)
 .text.do_stats
                0x00077244      0x224 procps/lib.a(top.o)
 .text.clearmems
                0x00077468       0x28 procps/lib.a(top.o)
 .text.reset_term
                0x00077490       0x14 procps/lib.a(top.o)
 .text.sig_catcher
                0x000774a4       0x10 procps/lib.a(top.o)
 .text.top_main
                0x000774b4      0x9c4 procps/lib.a(top.o)
                0x000774b4                top_main
 .text.uptime_main
                0x00077e78      0x150 procps/lib.a(uptime.o)
                0x00077e78                uptime_main
 .text.watch_main
                0x00077fc8      0x1a0 procps/lib.a(watch.o)
                0x00077fc8                watch_main
 .text.suidgid  0x00078168       0x64 runit/lib.a(chpst.o)
 .text.euidgid  0x000781cc       0x68 runit/lib.a(chpst.o)
 .text.edir     0x00078234      0x1dc runit/lib.a(chpst.o)
 .text.limit    0x00078410       0x94 runit/lib.a(chpst.o)
 .text.slimit   0x000784a4       0xfc runit/lib.a(chpst.o)
 .text.chpst_main
                0x000785a0      0x58c runit/lib.a(chpst.o)
                0x000785a0                chpst_main
 .text.fatal2_cannot
                0x00078b2c       0x24 runit/lib.a(runsv.o)
 .text.fatal_cannot
                0x00078b50        0xc runit/lib.a(runsv.o)
 .text.fatal2x_cannot
                0x00078b5c       0x24 runit/lib.a(runsv.o)
 .text.warn_cannot
                0x00078b80       0x1c runit/lib.a(runsv.o)
 .text.s_child  0x00078b9c       0x1c runit/lib.a(runsv.o)
 .text.s_term   0x00078bb8       0x2c runit/lib.a(runsv.o)
 .text.add_str  0x00078be4       0x24 runit/lib.a(runsv.o)
 .text.open_trunc_or_warn
                0x00078c08       0x34 runit/lib.a(runsv.o)
 .text.rename_or_warn
                0x00078c3c       0x48 runit/lib.a(runsv.o)
 .text.gettimeofday_ns
                0x00078c84       0x14 runit/lib.a(runsv.o)
 .text.update_status
                0x00078c98      0x32c runit/lib.a(runsv.o)
 .text.custom   0x00078fc4      0x174 runit/lib.a(runsv.o)
 .text.stopservice
                0x00079138       0x8c runit/lib.a(runsv.o)
 .text.startservice
                0x000791c4      0x180 runit/lib.a(runsv.o)
 .text.ctrl     0x00079344      0x204 runit/lib.a(runsv.o)
 .text.runsv_main
                0x00079548      0x768 runit/lib.a(runsv.o)
                0x00079548                runsv_main
 .text.fatal2_cannot
                0x00079cb0       0x24 runit/lib.a(runsvdir.o)
 .text.warn3x   0x00079cd4       0x38 runit/lib.a(runsvdir.o)
 .text.warn2_cannot
                0x00079d0c       0x14 runit/lib.a(runsvdir.o)
 .text.warnx    0x00079d20       0x10 runit/lib.a(runsvdir.o)
 .text.s_term   0x00079d30       0x14 runit/lib.a(runsvdir.o)
 .text.s_hangup
                0x00079d44       0x14 runit/lib.a(runsvdir.o)
 .text.runsv    0x00079d58       0xc4 runit/lib.a(runsvdir.o)
 .text.runsvdir_main
                0x00079e1c      0x818 runit/lib.a(runsvdir.o)
                0x00079e1c                runsvdir_main
 .text.fatal_cannot
                0x0007a634       0x1c runit/lib.a(sv.o)
 .text.out      0x0007a650       0x64 runit/lib.a(sv.o)
 .text.fail     0x0007a6b4       0x24 runit/lib.a(sv.o)
 .text.failx    0x0007a6d8       0x18 runit/lib.a(sv.o)
 .text.warn     0x0007a6f0       0x24 runit/lib.a(sv.o)
 .text.ok       0x0007a714       0x24 runit/lib.a(sv.o)
 .text.svstatus_get
                0x0007a738      0x114 runit/lib.a(sv.o)
 .text.svstatus_print
                0x0007a84c      0x1e0 runit/lib.a(sv.o)
 .text.status   0x0007aa2c       0xac runit/lib.a(sv.o)
 .text.checkscript
                0x0007aad8      0x10c runit/lib.a(sv.o)
 .text.check    0x0007abe4      0x238 runit/lib.a(sv.o)
 .text.control  0x0007ae1c       0xdc runit/lib.a(sv.o)
 .text.sv_main  0x0007aef8      0x610 runit/lib.a(sv.o)
                0x0007aef8                sv_main
 .text.warn2    0x0007b508       0x14 runit/lib.a(svlogd.o)
 .text.warnx    0x0007b51c       0x14 runit/lib.a(svlogd.o)
 .text.pause_nomem
                0x0007b530       0x1c runit/lib.a(svlogd.o)
 .text.pause1cannot
                0x0007b54c       0x20 runit/lib.a(svlogd.o)
 .text.pause2cannot
                0x0007b56c       0x24 runit/lib.a(svlogd.o)
 .text.fmt_time_bernstein_25
                0x0007b590       0xcc runit/lib.a(svlogd.o)
 .text.processorstart
                0x0007b65c      0x1e0 runit/lib.a(svlogd.o)
 .text.processorstop
                0x0007b83c      0x244 runit/lib.a(svlogd.o)
 .text.rmoldest
                0x0007ba80      0x17c runit/lib.a(svlogd.o)
 .text.rotate   0x0007bbfc      0x2a8 runit/lib.a(svlogd.o)
 .text.buffer_pwrite
                0x0007bea4      0x298 runit/lib.a(svlogd.o)
 .text.logdir_close
                0x0007c13c       0xe4 runit/lib.a(svlogd.o)
 .text.logdirs_reopen
                0x0007c220      0x630 runit/lib.a(svlogd.o)
 .text.buffer_pread
                0x0007c850      0x334 runit/lib.a(svlogd.o)
 .text.sig_term_handler
                0x0007cb84       0x3c runit/lib.a(svlogd.o)
 .text.sig_child_handler
                0x0007cbc0       0xa4 runit/lib.a(svlogd.o)
 .text.sig_alarm_handler
                0x0007cc64       0x3c runit/lib.a(svlogd.o)
 .text.sig_hangup_handler
                0x0007cca0       0x3c runit/lib.a(svlogd.o)
 .text.svlogd_main
                0x0007ccdc      0x7a0 runit/lib.a(svlogd.o)
                0x0007ccdc                svlogd_main
 .text.byte_chr
                0x0007d47c       0x2c runit/lib.a(runit_lib.o)
                0x0007d47c                byte_chr
 .text.coe      0x0007d4a8        0xc runit/lib.a(runit_lib.o)
                0x0007d4a8                coe
 .text.lock_ex  0x0007d4b4        0x8 runit/lib.a(runit_lib.o)
                0x0007d4b4                lock_ex
 .text.lock_exnb
                0x0007d4bc        0x8 runit/lib.a(runit_lib.o)
                0x0007d4bc                lock_exnb
 .text.open_append
                0x0007d4c4       0x10 runit/lib.a(runit_lib.o)
                0x0007d4c4                open_append
 .text.open_read
                0x0007d4d4        0x8 runit/lib.a(runit_lib.o)
                0x0007d4d4                open_read
 .text.open_trunc
                0x0007d4dc       0x10 runit/lib.a(runit_lib.o)
                0x0007d4dc                open_trunc
 .text.open_write
                0x0007d4ec        0xc runit/lib.a(runit_lib.o)
                0x0007d4ec                open_write
 .text.pmatch   0x0007d4f8       0xcc runit/lib.a(runit_lib.o)
                0x0007d4f8                pmatch
 .text.raise_exception
                0x0007d5c4       0x3c shell/lib.a(ash.o)
 .text.raise_interrupt
                0x0007d600       0x98 shell/lib.a(ash.o)
 .text.int_on   0x0007d698       0x3c shell/lib.a(ash.o)
 .text.force_int_on
                0x0007d6d4       0x2c shell/lib.a(ash.o)
 .text.ignoresig
                0x0007d700       0x30 shell/lib.a(ash.o)
 .text.onsig    0x0007d730       0x7c shell/lib.a(ash.o)
 .text.outstr   0x0007d7ac       0x24 shell/lib.a(ash.o)
 .text.flush_stdout_stderr
                0x0007d7d0       0x40 shell/lib.a(ash.o)
 .text.flush_stderr
                0x0007d810       0x30 shell/lib.a(ash.o)
 .text.outcslow
                0x0007d840       0x30 shell/lib.a(ash.o)
 .text.out1fmt  0x0007d870       0x40 shell/lib.a(ash.o)
 .text.fmtstr   0x0007d8b0       0x40 shell/lib.a(ash.o)
 .text.out1str  0x0007d8f0       0x10 shell/lib.a(ash.o)
 .text.out2str  0x0007d900       0x1c shell/lib.a(ash.o)
 .text.freefunc
                0x0007d91c       0x20 shell/lib.a(ash.o)
 .text.ash_vmsg
                0x0007d93c       0xc8 shell/lib.a(ash.o)
 .text.ash_vmsg_and_raise
                0x0007da04       0x1c shell/lib.a(ash.o)
 .text.ash_msg_and_raise_error
                0x0007da20       0x14 shell/lib.a(ash.o)
 .text.ash_msg_and_raise
                0x0007da34       0x10 shell/lib.a(ash.o)
 .text.ash_msg  0x0007da44       0x20 shell/lib.a(ash.o)
 .text.errmsg   0x0007da64       0x14 shell/lib.a(ash.o)
 .text.ckrealloc
                0x0007da78       0x1c shell/lib.a(ash.o)
 .text.ckmalloc
                0x0007da94        0xc shell/lib.a(ash.o)
 .text.ckstrdup
                0x0007daa0       0x1c shell/lib.a(ash.o)
 .text.stalloc  0x0007dabc       0xb0 shell/lib.a(ash.o)
 .text.stunalloc
                0x0007db6c       0x2c shell/lib.a(ash.o)
 .text.ststrdup
                0x0007db98       0x28 shell/lib.a(ash.o)
 .text.setstackmark
                0x0007dbc0       0x4c shell/lib.a(ash.o)
 .text.popstackmark
                0x0007dc0c       0xac shell/lib.a(ash.o)
 .text.growstackblock
                0x0007dcb8      0x12c shell/lib.a(ash.o)
 .text.growstackstr
                0x0007dde4       0x64 shell/lib.a(ash.o)
 .text.makestrspace
                0x0007de48       0x44 shell/lib.a(ash.o)
 .text.stack_nputstr
                0x0007de8c       0x2c shell/lib.a(ash.o)
 .text.stack_putstr
                0x0007deb8       0x24 shell/lib.a(ash.o)
 .text._STPUTC  0x0007dedc       0x30 shell/lib.a(ash.o)
 .text.prefix   0x0007df0c       0x34 shell/lib.a(ash.o)
 .text.is_number
                0x0007df40       0x2c shell/lib.a(ash.o)
 .text.number   0x0007df6c       0x2c shell/lib.a(ash.o)
 .text.single_quote
                0x0007df98       0xc4 shell/lib.a(ash.o)
 .text.nextopt  0x0007e05c      0x114 shell/lib.a(ash.o)
 .text.freeparam
                0x0007e170       0x40 shell/lib.a(ash.o)
 .text.change_lc_all
                0x0007e1b0       0x20 shell/lib.a(ash.o)
 .text.change_lc_ctype
                0x0007e1d0       0x20 shell/lib.a(ash.o)
 .text.endofname
                0x0007e1f0       0x4c shell/lib.a(ash.o)
 .text.varcmp   0x0007e23c       0x44 shell/lib.a(ash.o)
 .text.varequal
                0x0007e280       0x14 shell/lib.a(ash.o)
 .text.hashvar  0x0007e294       0x48 shell/lib.a(ash.o)
 .text.vpcmp    0x0007e2dc        0xc shell/lib.a(ash.o)
 .text.findvar  0x0007e2e8       0x48 shell/lib.a(ash.o)
 .text.lookupvar
                0x0007e330       0x5c shell/lib.a(ash.o)
 .text.bltinlookup
                0x0007e38c       0x5c shell/lib.a(ash.o)
 .text.setvareq
                0x0007e3e8      0x118 shell/lib.a(ash.o)
 .text.setvar   0x0007e500       0xe4 shell/lib.a(ash.o)
 .text.unsetvar
                0x0007e5e4       0xa8 shell/lib.a(ash.o)
 .text.listsetvar
                0x0007e68c       0x44 shell/lib.a(ash.o)
 .text.listvars
                0x0007e6d0       0xb8 shell/lib.a(ash.o)
 .text.padvance
                0x0007e788      0x110 shell/lib.a(ash.o)
 .text.setprompt
                0x0007e898       0x5c shell/lib.a(ash.o)
 .text.cdopt    0x0007e8f4       0x38 shell/lib.a(ash.o)
 .text.setpwd   0x0007e92c       0xe4 shell/lib.a(ash.o)
 .text.cdcmd    0x0007ea10      0x3b0 shell/lib.a(ash.o)
 .text.pwdcmd   0x0007edc0       0x5c shell/lib.a(ash.o)
 .text.SIT      0x0007ee1c       0x78 shell/lib.a(ash.o)
 .text.setsignal
                0x0007ee94      0x1a0 shell/lib.a(ash.o)
 .text.set_curjob
                0x0007f034       0x60 shell/lib.a(ash.o)
 .text.jobno    0x0007f094       0x30 shell/lib.a(ash.o)
 .text.getjob   0x0007f0c4      0x16c shell/lib.a(ash.o)
 .text.freejob  0x0007f230       0x80 shell/lib.a(ash.o)
 .text.xtcsetpgrp
                0x0007f2b0       0x1c shell/lib.a(ash.o)
 .text.setjobctl
                0x0007f2cc      0x1a0 shell/lib.a(ash.o)
 .text.killcmd  0x0007f46c       0x9c shell/lib.a(ash.o)
 .text.showpipe
                0x0007f508       0x60 shell/lib.a(ash.o)
 .text.sprint_status
                0x0007f568       0xcc shell/lib.a(ash.o)
 .text.dowait   0x0007f634      0x1ac shell/lib.a(ash.o)
 .text.showjob  0x0007f7e0      0x1e0 shell/lib.a(ash.o)
 .text.showjobs
                0x0007f9c0       0x68 shell/lib.a(ash.o)
 .text.jobscmd  0x0007fa28       0x90 shell/lib.a(ash.o)
 .text.getstatus
                0x0007fab8       0x54 shell/lib.a(ash.o)
 .text.waitforjob
                0x0007fb0c       0x80 shell/lib.a(ash.o)
 .text.fg_bgcmd
                0x0007fb8c      0x14c shell/lib.a(ash.o)
 .text.waitcmd  0x0007fcd8      0x144 shell/lib.a(ash.o)
 .text.makejob  0x0007fe1c      0x19c shell/lib.a(ash.o)
 .text.cmdputs  0x0007ffb8      0x208 shell/lib.a(ash.o)
 .text.cmdlist  0x000801c0       0x50 shell/lib.a(ash.o)
 .text.cmdtxt   0x00080210      0x348 shell/lib.a(ash.o)
 .text.stoppedjobs
                0x00080558       0x5c shell/lib.a(ash.o)
 .text.copyfd   0x000805b4       0x50 shell/lib.a(ash.o)
 .text.popredir
                0x00080604       0xac shell/lib.a(ash.o)
 .text.clearredir
                0x000806b0       0x38 shell/lib.a(ash.o)
 .text.cvtnum   0x000806e8       0x54 shell/lib.a(ash.o)
 .text.esclen   0x0008073c       0x38 shell/lib.a(ash.o)
 .text._rmescapes
                0x00080774      0x138 shell/lib.a(ash.o)
 .text.preglob  0x000808ac       0x10 shell/lib.a(ash.o)
 .text.memtodest
                0x000808bc       0x88 shell/lib.a(ash.o)
 .text.recordregion
                0x00080944       0x70 shell/lib.a(ash.o)
 .text.removerecordregions
                0x000809b4      0x12c shell/lib.a(ash.o)
 .text.scanleft
                0x00080ae0       0x7c shell/lib.a(ash.o)
 .text.scanright
                0x00080b5c       0xa4 shell/lib.a(ash.o)
 .text.varunset
                0x00080c00       0x5c shell/lib.a(ash.o)
 .text.addfname
                0x00080c5c       0x38 shell/lib.a(ash.o)
 .text.expmeta  0x00080c94      0x2a0 shell/lib.a(ash.o)
 .text.msort    0x00080f34       0xbc shell/lib.a(ash.o)
 .text.tryexec  0x00080ff0       0xb0 shell/lib.a(ash.o)
 .text.shellexec
                0x000810a0      0x118 shell/lib.a(ash.o)
 .text.clearcmdentry
                0x000811b8       0xa0 shell/lib.a(ash.o)
 .text.cmdlookup
                0x00081258       0xec shell/lib.a(ash.o)
 .text.delete_cmd_entry
                0x00081344       0x54 shell/lib.a(ash.o)
 .text.changepath
                0x00081398      0x100 shell/lib.a(ash.o)
 .text.tokname  0x00081498       0x54 shell/lib.a(ash.o)
 .text.pstrcmp  0x000814ec        0xc shell/lib.a(ash.o)
 .text.findkwd  0x000814f8       0x30 shell/lib.a(ash.o)
 .text.sizenodelist
                0x00081528       0x38 shell/lib.a(ash.o)
 .text.calcsize
                0x00081560      0x148 shell/lib.a(ash.o)
 .text.nodeckstrdup
                0x000816a8       0x40 shell/lib.a(ash.o)
 .text.copynodelist
                0x000816e8       0x5c shell/lib.a(ash.o)
 .text.copynode
                0x00081744      0x170 shell/lib.a(ash.o)
 .text.optschanged
                0x000818b4       0x58 shell/lib.a(ash.o)
 .text.localcmd
                0x0008190c      0x130 shell/lib.a(ash.o)
 .text.falsecmd
                0x00081a3c        0x8 shell/lib.a(ash.o)
 .text.truecmd  0x00081a44        0x8 shell/lib.a(ash.o)
 .text.execcmd  0x00081a4c       0x48 shell/lib.a(ash.o)
 .text.returncmd
                0x00081a94       0x44 shell/lib.a(ash.o)
 .text.find_builtin
                0x00081ad8       0x30 shell/lib.a(ash.o)
 .text.isassignment
                0x00081b08       0x30 shell/lib.a(ash.o)
 .text.bltincmd
                0x00081b38       0x10 shell/lib.a(ash.o)
 .text.evalbltin
                0x00081b48       0xf0 shell/lib.a(ash.o)
 .text.goodname
                0x00081c38       0x18 shell/lib.a(ash.o)
 .text.breakcmd
                0x00081c50       0x80 shell/lib.a(ash.o)
 .text.popstring
                0x00081cd0       0x68 shell/lib.a(ash.o)
 .text.pgetc    0x00081d38      0x2fc shell/lib.a(ash.o)
 .text.pgetc2   0x00082034        0x4 shell/lib.a(ash.o)
 .text.pungetc  0x00082038       0x2c shell/lib.a(ash.o)
 .text.pushfile
                0x00082064       0x7c shell/lib.a(ash.o)
 .text.popfile  0x000820e0       0xac shell/lib.a(ash.o)
 .text.popallfiles
                0x0008218c       0x34 shell/lib.a(ash.o)
 .text.forkshell
                0x000821c0      0x33c shell/lib.a(ash.o)
 .text.setinputfile
                0x000824fc      0x10c shell/lib.a(ash.o)
 .text.setinputstring
                0x00082608       0x6c shell/lib.a(ash.o)
 .text.setparam
                0x00082674       0x8c shell/lib.a(ash.o)
 .text.options  0x00082700      0x274 shell/lib.a(ash.o)
 .text.shiftcmd
                0x00082974       0xa8 shell/lib.a(ash.o)
 .text.showvars
                0x00082a1c       0xc4 shell/lib.a(ash.o)
 .text.setcmd   0x00082ae0       0x68 shell/lib.a(ash.o)
 .text.change_random
                0x00082b48       0xa0 shell/lib.a(ash.o)
 .text.raise_error_syntax
                0x00082be8       0x10 shell/lib.a(ash.o)
 .text.raise_error_unexpected_syntax
                0x00082bf8       0x60 shell/lib.a(ash.o)
 .text.makename
                0x00082c58       0x40 shell/lib.a(ash.o)
 .text.fixredir
                0x00082c98       0x68 shell/lib.a(ash.o)
 .text.xxreadtoken
                0x00082d00      0x18c shell/lib.a(ash.o)
 .text.readtoken
                0x00082e8c       0xa4 shell/lib.a(ash.o)
 .text.parsefname
                0x00082f30      0x13c shell/lib.a(ash.o)
 .text.peektoken
                0x0008306c       0x30 shell/lib.a(ash.o)
 .text.list     0x0008309c      0x1c4 shell/lib.a(ash.o)
 .text.readtoken1
                0x00083260      0xe44 shell/lib.a(ash.o)
 .text.parseheredoc
                0x000840a4       0xac shell/lib.a(ash.o)
 .text.parse_command
                0x00084150      0x724 shell/lib.a(ash.o)
 .text.pipeline
                0x00084874       0xfc shell/lib.a(ash.o)
 .text.parsecmd
                0x00084970       0x70 shell/lib.a(ash.o)
 .text.exitcmd  0x000849e0       0x40 shell/lib.a(ash.o)
 .text.echocmd  0x00084a20        0x8 shell/lib.a(ash.o)
 .text.testcmd  0x00084a28        0x4 shell/lib.a(ash.o)
 .text.trapcmd  0x00084a2c      0x12c shell/lib.a(ash.o)
 .text.exportcmd
                0x00084b58       0xc0 shell/lib.a(ash.o)
 .text.unsetcmd
                0x00084c18       0x98 shell/lib.a(ash.o)
 .text.timescmd
                0x00084cb0       0xb0 shell/lib.a(ash.o)
 .text.readcmd  0x00084d60      0x4d4 shell/lib.a(ash.o)
 .text.umaskcmd
                0x00085234      0x1d8 shell/lib.a(ash.o)
 .text.printlim
                0x0008540c       0x68 shell/lib.a(ash.o)
 .text.ulimitcmd
                0x00085474      0x230 shell/lib.a(ash.o)
 .text.arith    0x000856a4      0x888 shell/lib.a(ash.o)
 .text.dash_arith
                0x00085f2c       0x94 shell/lib.a(ash.o)
 .text.letcmd   0x00085fc0       0x40 shell/lib.a(ash.o)
 .text.argstr   0x00086000      0x628 shell/lib.a(ash.o)
 .text.expandarg
                0x00086628      0x458 shell/lib.a(ash.o)
 .text.expredir
                0x00086a80       0xb8 shell/lib.a(ash.o)
 .text.redirect
                0x00086b38      0x4f0 shell/lib.a(ash.o)
 .text.redirectsafe
                0x00087028       0xb8 shell/lib.a(ash.o)
 .text.evaltree
                0x000870e0      0x364 shell/lib.a(ash.o)
 .text.evalstring
                0x00087444       0x7c shell/lib.a(ash.o)
 .text.evalcmd  0x000874c0       0x90 shell/lib.a(ash.o)
 .text.cmdloop  0x00087550      0x118 shell/lib.a(ash.o)
 .text.find_command
                0x00087668      0x3f8 shell/lib.a(ash.o)
 .text.describe_command
                0x00087a60      0x1b4 shell/lib.a(ash.o)
 .text.typecmd  0x00087c14       0x60 shell/lib.a(ash.o)
 .text.commandcmd
                0x00087c74       0x58 shell/lib.a(ash.o)
 .text.hashcmd  0x00087ccc      0x17c shell/lib.a(ash.o)
 .text.evalpipe
                0x00087e48      0x1b0 shell/lib.a(ash.o)
 .text.dotcmd   0x00087ff8      0x164 shell/lib.a(ash.o)
 .text.evalloop
                0x0008815c      0x100 shell/lib.a(ash.o)
 .text.evalfun  0x0008825c      0x200 shell/lib.a(ash.o)
 .text.evalsubshell
                0x0008845c       0xd4 shell/lib.a(ash.o)
 .text.evalfor  0x00088530      0x148 shell/lib.a(ash.o)
 .text.evalcommand
                0x00088678      0x5a8 shell/lib.a(ash.o)
 .text.subevalvar
                0x00088c20      0x1b8 shell/lib.a(ash.o)
 .text.evalvar  0x00088dd8      0x5a0 shell/lib.a(ash.o)
 .text.evalcase
                0x00089378      0x170 shell/lib.a(ash.o)
 .text.arith_lookup_val
                0x000894e8       0xac shell/lib.a(ash.o)
 .text.exitshell
                0x00089594       0x84 shell/lib.a(ash.o)
 .text.read_profile
                0x00089618       0x30 shell/lib.a(ash.o)
 .text.ash_main
                0x00089648      0x564 shell/lib.a(ash.o)
                0x00089648                ash_main
 .text.klogd_signal
                0x00089bac       0x3c sysklogd/lib.a(klogd.o)
 .text.klogd_main
                0x00089be8      0x1e0 sysklogd/lib.a(klogd.o)
                0x00089be8                klogd_main
 .text.decode   0x00089dc8       0x5c sysklogd/lib.a(logger.o)
 .text.logger_main
                0x00089e24      0x214 sysklogd/lib.a(logger.o)
                0x00089e24                logger_main
 .text.error_exit
                0x0008a038       0x20 sysklogd/lib.a(logread.o)
 .text.sem_up   0x0008a058       0x28 sysklogd/lib.a(logread.o)
 .text.interrupted
                0x0008a080       0x28 sysklogd/lib.a(logread.o)
 .text.logread_main
                0x0008a0a8      0x214 sysklogd/lib.a(logread.o)
                0x0008a0a8                logread_main
 .text.timestamp_and_log
                0x0008a2bc      0x4dc sysklogd/lib.a(syslogd.o)
 .text.quit_signal
                0x0008a798       0x70 sysklogd/lib.a(syslogd.o)
 .text.syslogd_main
                0x0008a808      0x60c sysklogd/lib.a(syslogd.o)
                0x0008a808                syslogd_main
 .text.dmesg_main
                0x0008ae14      0x104 util-linux/lib.a(dmesg.o)
                0x0008ae14                dmesg_main
 .text.fbset_main
                0x0008af18      0x884 util-linux/lib.a(fbset.o)
                0x0008af18                fbset_main
 .text.fdformat_main
                0x0008b79c      0x268 util-linux/lib.a(fdformat.o)
                0x0008b79c                fdformat_main
 .text.read_line
                0x0008ba04       0x88 util-linux/lib.a(fdisk.o)
 .text.str_units
                0x0008ba8c       0x58 util-linux/lib.a(fdisk.o)
 .text.valid_part_table_flag
                0x0008bae4       0x28 util-linux/lib.a(fdisk.o)
 .text.read_nonempty
                0x0008bb0c       0x30 util-linux/lib.a(fdisk.o)
 .text.read_maybe_empty
                0x0008bb3c       0x38 util-linux/lib.a(fdisk.o)
 .text.store4_little_endian
                0x0008bb74       0x20 util-linux/lib.a(fdisk.o)
 .text.read4_little_endian
                0x0008bb94       0x20 util-linux/lib.a(fdisk.o)
 .text.set_start_sect
                0x0008bbb4        0x8 util-linux/lib.a(fdisk.o)
 .text.get_start_sect
                0x0008bbbc        0x8 util-linux/lib.a(fdisk.o)
 .text.set_nr_sects
                0x0008bbc4        0x8 util-linux/lib.a(fdisk.o)
 .text.get_nr_sects
                0x0008bbcc        0x8 util-linux/lib.a(fdisk.o)
 .text.fdisk_fatal
                0x0008bbd4       0x4c util-linux/lib.a(fdisk.o)
 .text.seek_sector
                0x0008bc20       0x50 util-linux/lib.a(fdisk.o)
 .text.get_partition_start
                0x0008bc70       0x1c util-linux/lib.a(fdisk.o)
 .text.is_dos_partition
                0x0008bc8c       0x78 util-linux/lib.a(fdisk.o)
 .text.menu     0x0008bd04       0xc8 util-linux/lib.a(fdisk.o)
 .text.get_sys_types
                0x0008bdcc        0xc util-linux/lib.a(fdisk.o)
 .text.partition_type
                0x0008bdd8       0x50 util-linux/lib.a(fdisk.o)
 .text.list_types
                0x0008be28       0xdc util-linux/lib.a(fdisk.o)
 .text.is_cleared_partition
                0x0008bf04       0x98 util-linux/lib.a(fdisk.o)
 .text.clear_partition
                0x0008bf9c       0x14 util-linux/lib.a(fdisk.o)
 .text.set_partition
                0x0008bfb0      0x298 util-linux/lib.a(fdisk.o)
 .text.warn_geometry
                0x0008c248       0xa8 util-linux/lib.a(fdisk.o)
 .text.update_units
                0x0008c2f0       0x58 util-linux/lib.a(fdisk.o)
 .text.warn_cylinders
                0x0008c348       0x48 util-linux/lib.a(fdisk.o)
 .text.read_int
                0x0008c390      0x2c8 util-linux/lib.a(fdisk.o)
 .text.get_partition
                0x0008c658       0x74 util-linux/lib.a(fdisk.o)
 .text.get_existing_partition
                0x0008c6cc       0xa8 util-linux/lib.a(fdisk.o)
 .text.get_nonexisting_partition
                0x0008c774       0xa8 util-linux/lib.a(fdisk.o)
 .text.delete_partition
                0x0008c81c      0x208 util-linux/lib.a(fdisk.o)
 .text.get_boot
                0x0008ca24      0x804 util-linux/lib.a(fdisk.o)
 .text.create_doslabel
                0x0008d228       0xc8 util-linux/lib.a(fdisk.o)
 .text.linear2chs
                0x0008d2f0       0x70 util-linux/lib.a(fdisk.o)
 .text.check_consistency
                0x0008d360      0x1e8 util-linux/lib.a(fdisk.o)
 .text.list_disk_geometry
                0x0008d548      0x164 util-linux/lib.a(fdisk.o)
 .text.wrong_p_order
                0x0008d6ac       0xb8 util-linux/lib.a(fdisk.o)
 .text.list_table
                0x0008d764      0x404 util-linux/lib.a(fdisk.o)
 .text.x_list_table
                0x0008db68      0x148 util-linux/lib.a(fdisk.o)
 .text.fill_bounds
                0x0008dcb0       0xdc util-linux/lib.a(fdisk.o)
 .text.verify   0x0008dd8c      0x610 util-linux/lib.a(fdisk.o)
 .text.add_partition
                0x0008e39c      0xab0 util-linux/lib.a(fdisk.o)
 .text.add_logical
                0x0008ee4c       0xa8 util-linux/lib.a(fdisk.o)
 .text.write_table
                0x0008eef4      0x134 util-linux/lib.a(fdisk.o)
 .text.print_buffer
                0x0008f028       0x8c util-linux/lib.a(fdisk.o)
 .text.trydev   0x0008f0b4      0x1f4 util-linux/lib.a(fdisk.o)
 .text.unknown_command
                0x0008f2a8       0x10 util-linux/lib.a(fdisk.o)
 .text.fdisk_main
                0x0008f2b8      0xe78 util-linux/lib.a(fdisk.o)
                0x0008f2b8                fdisk_main
 .text.freeramdisk_main
                0x00090130       0x6c util-linux/lib.a(freeramdisk.o)
                0x00090130                freeramdisk_main
 .text.minix_bit
                0x0009019c       0x14 util-linux/lib.a(fsck_minix.o)
 .text.minix_setbit
                0x000901b0       0x30 util-linux/lib.a(fsck_minix.o)
 .text.minix_clrbit
                0x000901e0       0x30 util-linux/lib.a(fsck_minix.o)
 .text.die      0x00090210       0x38 util-linux/lib.a(fsck_minix.o)
 .text.push_filename
                0x00090248       0x64 util-linux/lib.a(fsck_minix.o)
 .text.pop_filename
                0x000902ac       0x54 util-linux/lib.a(fsck_minix.o)
 .text.ask      0x00090300      0x124 util-linux/lib.a(fsck_minix.o)
 .text.check_zone_nr2
                0x00090424       0xbc util-linux/lib.a(fsck_minix.o)
 .text.check_zone_nr
                0x000904e0       0x3c util-linux/lib.a(fsck_minix.o)
 .text.read_block
                0x0009051c       0xc4 util-linux/lib.a(fsck_minix.o)
 .text.write_block
                0x000905e0       0xec util-linux/lib.a(fsck_minix.o)
 .text.write_super_block
                0x000906cc       0xa8 util-linux/lib.a(fsck_minix.o)
 .text.add_zone
                0x00090774      0x124 util-linux/lib.a(fsck_minix.o)
 .text.add_zone2
                0x00090898      0x11c util-linux/lib.a(fsck_minix.o)
 .text.add_zone_ind
                0x000909b4       0x6c util-linux/lib.a(fsck_minix.o)
 .text.add_zone_ind2
                0x00090a20       0x6c util-linux/lib.a(fsck_minix.o)
 .text.add_zone_dind2
                0x00090a8c       0x6c util-linux/lib.a(fsck_minix.o)
 .text.check_zones
                0x00090af8       0xfc util-linux/lib.a(fsck_minix.o)
 .text.check_zones2
                0x00090bf4      0x108 util-linux/lib.a(fsck_minix.o)
 .text.recursive_check
                0x00090cfc      0x55c util-linux/lib.a(fsck_minix.o)
 .text.recursive_check2
                0x00091258      0x600 util-linux/lib.a(fsck_minix.o)
 .text.bad_zone
                0x00091858       0x78 util-linux/lib.a(fsck_minix.o)
 .text.fsck_minix_main
                0x000918d0     0x12b4 util-linux/lib.a(fsck_minix.o)
                0x000918d0                fsck_minix_main
 .text.normalize
                0x00092b84      0x12c util-linux/lib.a(getopt.o)
 .text.generate_output
                0x00092cb0      0x1cc util-linux/lib.a(getopt.o)
 .text.getopt_main
                0x00092e7c      0x350 util-linux/lib.a(getopt.o)
                0x00092e7c                getopt_main
 .text.hexdump_main
                0x000931cc      0x1d0 util-linux/lib.a(hexdump.o)
                0x000931cc                hexdump_main
 .text.xopen_rtc
                0x0009339c       0x70 util-linux/lib.a(hwclock.o)
 .text.read_rtc
                0x0009340c       0xc0 util-linux/lib.a(hwclock.o)
 .text.hwclock_main
                0x000934cc      0x258 util-linux/lib.a(hwclock.o)
                0x000934cc                hwclock_main
 .text.ipcrm_main
                0x00093724      0x3b4 util-linux/lib.a(ipcrm.o)
                0x00093724                ipcrm_main
 .text.print_perms
                0x00093ad8       0xb8 util-linux/lib.a(ipcs.o)
 .text.ipcs_main
                0x00093b90      0xe8c util-linux/lib.a(ipcs.o)
                0x00093b90                ipcs_main
 .text.losetup_main
                0x00094a1c      0x148 util-linux/lib.a(losetup.o)
                0x00094a1c                losetup_main
 .text.make_device
                0x00094b64      0x560 util-linux/lib.a(mdev.o)
 .text.fileAction
                0x000950c4       0x58 util-linux/lib.a(mdev.o)
 .text.dirAction
                0x0009511c       0x10 util-linux/lib.a(mdev.o)
 .text.mdev_main
                0x0009512c      0x25c util-linux/lib.a(mdev.o)
                0x0009512c                mdev_main
 .text.minix_bit
                0x00095388       0x14 util-linux/lib.a(mkfs_minix.o)
 .text.minix_setbit
                0x0009539c       0x1c util-linux/lib.a(mkfs_minix.o)
 .text.minix_clrbit
                0x000953b8       0x1c util-linux/lib.a(mkfs_minix.o)
 .text.valid_offset
                0x000953d4       0x4c util-linux/lib.a(mkfs_minix.o)
 .text.write_block
                0x00095420       0x40 util-linux/lib.a(mkfs_minix.o)
 .text.get_free_block
                0x00095460      0x100 util-linux/lib.a(mkfs_minix.o)
 .text.next     0x00095560       0x94 util-linux/lib.a(mkfs_minix.o)
 .text.alarm_intr
                0x000955f4       0x7c util-linux/lib.a(mkfs_minix.o)
 .text.mkfs_minix_main
                0x00095670      0xfc8 util-linux/lib.a(mkfs_minix.o)
                0x00095670                mkfs_minix_main
 .text.mkswap_main
                0x00096638       0xf8 util-linux/lib.a(mkswap.o)
                0x00096638                mkswap_main
 .text.gotsig   0x00096730       0x28 util-linux/lib.a(more.o)
 .text.more_main
                0x00096758      0x390 util-linux/lib.a(more.o)
                0x00096758                more_main
 .text.append_mount_options
                0x00096ae8       0xf0 util-linux/lib.a(mount.o)
 .text.parse_mount_options
                0x00096bd8      0x10c util-linux/lib.a(mount.o)
 .text.mount_it_now
                0x00096ce4       0x98 util-linux/lib.a(mount.o)
 .text.nfs_strerror
                0x00096d7c       0x70 util-linux/lib.a(mount.o)
 .text.xdr_fhstatus
                0x00096dec       0x44 util-linux/lib.a(mount.o)
 .text.xdr_dirpath
                0x00096e30       0x18 util-linux/lib.a(mount.o)
 .text.xdr_mountres3
                0x00096e48       0x90 util-linux/lib.a(mount.o)
 .text.daemonize
                0x00096ed8       0xac util-linux/lib.a(mount.o)
 .text.error_msg_rpc
                0x00096f84       0x60 util-linux/lib.a(mount.o)
 .text.singlemount
                0x00096fe4     0x12f8 util-linux/lib.a(mount.o)
 .text.mount_main
                0x000982dc      0x3dc util-linux/lib.a(mount.o)
                0x000982dc                mount_main
 .text.pivot_root_main
                0x000986b8       0x2c util-linux/lib.a(pivot_root.o)
                0x000986b8                pivot_root_main
 .text.socket_timeout
                0x000986e4       0x10 util-linux/lib.a(rdate.o)
 .text.rdate_main
                0x000986f4      0x14c util-linux/lib.a(rdate.o)
                0x000986f4                rdate_main
 .text.readprofile_main
                0x00098840      0x928 util-linux/lib.a(readprofile.o)
                0x00098840                readprofile_main
 .text.setarch_main
                0x00099168       0x78 util-linux/lib.a(setarch.o)
                0x00099168                setarch_main
 .text.swap_enable_disable
                0x000991e0       0x70 util-linux/lib.a(swaponoff.o)
 .text.swap_on_off_main
                0x00099250       0xc0 util-linux/lib.a(swaponoff.o)
                0x00099250                swap_on_off_main
 .text.delete_contents
                0x00099310      0x124 util-linux/lib.a(switch_root.o)
 .text.switch_root_main
                0x00099434      0x1f8 util-linux/lib.a(switch_root.o)
                0x00099434                switch_root_main
 .text.umount_main
                0x0009962c      0x31c util-linux/lib.a(umount.o)
                0x0009962c                umount_main
 .text.askpass_timeout
                0x00099948        0x4 libbb/lib.a(bb_askpass.o)
 .text.bb_askpass
                0x0009994c      0x170 libbb/lib.a(bb_askpass.o)
                0x0009994c                bb_askpass
 .text.bb_do_delay
                0x00099abc       0x6c libbb/lib.a(bb_do_delay.o)
                0x00099abc                bb_do_delay
 .text.change_identity_e2str
                0x00099b28       0x44 libbb/lib.a(change_identity.o)
                0x00099b28                change_identity_e2str
 .text.change_identity
                0x00099b6c       0x20 libbb/lib.a(change_identity.o)
                0x00099b6c                change_identity
 .text.correct_password
                0x00099b8c       0xcc libbb/lib.a(correct_password.o)
                0x00099b8c                correct_password
 .text.create_icmp6_socket
                0x00099c58       0x6c libbb/lib.a(create_icmp6_socket.o)
                0x00099c58                create_icmp6_socket
 .text.create_icmp_socket
                0x00099cc4       0x6c libbb/lib.a(create_icmp_socket.o)
                0x00099cc4                create_icmp_socket
 .text.i64c     0x00099d30       0x38 libbb/lib.a(crypt_make_salt.o)
 .text.crypt_make_salt
                0x00099d68       0x7c libbb/lib.a(crypt_make_salt.o)
                0x00099d68                crypt_make_salt
 .text.bb_herror_msg
                0x00099de4       0x30 libbb/lib.a(herror_msg.o)
                0x00099de4                bb_herror_msg
 .text.bb_herror_msg_and_die
                0x00099e14       0x28 libbb/lib.a(herror_msg_and_die.o)
                0x00099e14                bb_herror_msg_and_die
 .text.INET_resolve
                0x00099e3c       0xc8 libbb/lib.a(inet_common.o)
                0x00099e3c                INET_resolve
 .text.INET_rresolve
                0x00099f04      0x16c libbb/lib.a(inet_common.o)
                0x00099f04                INET_rresolve
 .text.INET6_resolve
                0x0009a070       0x94 libbb/lib.a(inet_common.o)
                0x0009a070                INET6_resolve
 .text.INET6_rresolve
                0x0009a104      0x100 libbb/lib.a(inet_common.o)
                0x0009a104                INET6_rresolve
 .text.get_linux_version_code
                0x0009a204       0x6c libbb/lib.a(kernel_version.o)
                0x0009a204                get_linux_version_code
 .text.cmdedit_set_out_char
                0x0009a270       0xa8 libbb/lib.a(lineedit.o)
 .text.input_end
                0x0009a318       0x40 libbb/lib.a(lineedit.o)
 .text.goto_new_line
                0x0009a358       0x28 libbb/lib.a(lineedit.o)
 .text.beep     0x0009a380        0x8 libbb/lib.a(lineedit.o)
 .text.input_backward
                0x0009a388       0xcc libbb/lib.a(lineedit.o)
 .text.put_prompt
                0x0009a454       0x5c libbb/lib.a(lineedit.o)
 .text.redraw   0x0009a4b0       0x44 libbb/lib.a(lineedit.o)
 .text.input_delete
                0x0009a4f4       0x64 libbb/lib.a(lineedit.o)
 .text.input_backspace
                0x0009a558       0x2c libbb/lib.a(lineedit.o)
 .text.add_quote_for_spec_chars
                0x0009a584       0x70 libbb/lib.a(lineedit.o)
 .text.match_compare
                0x0009a5f4        0xc libbb/lib.a(lineedit.o)
 .text.input_tab
                0x0009a600     0x105c libbb/lib.a(lineedit.o)
 .text.get_previous_history
                0x0009b65c       0x80 libbb/lib.a(lineedit.o)
 .text.get_next_history
                0x0009b6dc       0x50 libbb/lib.a(lineedit.o)
 .text.win_changed
                0x0009b72c       0xac libbb/lib.a(lineedit.o)
 .text.read_line_input
                0x0009b7d8      0x684 libbb/lib.a(lineedit.o)
                0x0009b7d8                read_line_input
 .text.new_line_input_t
                0x0009be5c       0x18 libbb/lib.a(lineedit.o)
                0x0009be5c                new_line_input_t
 .text.print_login_issue
                0x0009be74      0x1dc libbb/lib.a(login.o)
                0x0009be74                print_login_issue
 .text.print_login_prompt
                0x0009c050       0x50 libbb/lib.a(login.o)
                0x0009c050                print_login_prompt
 .text.query_loop
                0x0009c0a0       0x68 libbb/lib.a(loop.o)
                0x0009c0a0                query_loop
 .text.del_loop
                0x0009c108       0x3c libbb/lib.a(loop.o)
                0x0009c108                del_loop
 .text.set_loop
                0x0009c144      0x258 libbb/lib.a(loop.o)
                0x0009c144                set_loop
 .text.match_fstype
                0x0009c39c       0xb0 libbb/lib.a(match_fstype.o)
                0x0009c39c                match_fstype
 .text.string_checker_helper
                0x0009c44c       0x48 libbb/lib.a(obscure.o)
 .text.string_checker
                0x0009c494       0x84 libbb/lib.a(obscure.o)
 .text.obscure  0x0009c518      0x1c4 libbb/lib.a(obscure.o)
                0x0009c518                obscure
 .text.pw_encrypt
                0x0009c6dc       0x34 libbb/lib.a(pw_encrypt.o)
                0x0009c6dc                pw_encrypt
 .text.restricted_shell
                0x0009c710       0x44 libbb/lib.a(restricted_shell.o)
                0x0009c710                restricted_shell
 .text.run_shell
                0x0009c754       0xe4 libbb/lib.a(run_shell.o)
                0x0009c754                run_shell
 .text.setup_environment
                0x0009c838      0x118 libbb/lib.a(setup_environment.o)
                0x0009c838                setup_environment
 .text.bb_simplify_path
                0x0009c950       0xe8 libbb/lib.a(simplify_path.o)
                0x0009c950                bb_simplify_path
 .text.str_tolower
                0x0009ca38       0x40 libbb/lib.a(str_tolower.o)
                0x0009ca38                str_tolower
 .text.monotonic_us
                0x0009ca78       0x78 libbb/lib.a(time.o)
                0x0009ca78                monotonic_us
 .text.monotonic_sec
                0x0009caf0        0x8 libbb/lib.a(time.o)
                0x0009caf0                monotonic_sec
 .text.trim     0x0009caf8       0x64 libbb/lib.a(trim.o)
                0x0009caf8                trim
 .text.update_passwd
                0x0009cb5c      0x314 libbb/lib.a(update_passwd.o)
                0x0009cb5c                update_passwd
 .text.xgethostbyname
                0x0009ce70       0x24 libbb/lib.a(xgethostbyname.o)
                0x0009ce70                xgethostbyname
 .text          0x0009ce94       0xf8 /home/zion/gcc_jz2440/arm-linux-gcc-3.4.5-glibc-2.3.6/bin/../lib/gcc/arm-linux/3.4.5/libgcc.a(_udivsi3.oS)
                0x0009ce94                __udivsi3
 .text          0x0009cf8c      0x128 /home/zion/gcc_jz2440/arm-linux-gcc-3.4.5-glibc-2.3.6/bin/../lib/gcc/arm-linux/3.4.5/libgcc.a(_divsi3.oS)
                0x0009cf8c                __divsi3
 .text          0x0009d0b4       0xcc /home/zion/gcc_jz2440/arm-linux-gcc-3.4.5-glibc-2.3.6/bin/../lib/gcc/arm-linux/3.4.5/libgcc.a(_umodsi3.oS)
                0x0009d0b4                __umodsi3
 .text          0x0009d180       0xe4 /home/zion/gcc_jz2440/arm-linux-gcc-3.4.5-glibc-2.3.6/bin/../lib/gcc/arm-linux/3.4.5/libgcc.a(_modsi3.oS)
                0x0009d180                __modsi3
 .text          0x0009d264       0x1c /home/zion/gcc_jz2440/arm-linux-gcc-3.4.5-glibc-2.3.6/bin/../lib/gcc/arm-linux/3.4.5/libgcc.a(_dvmd_lnx.oS)
                0x0009d264                __div0
 .text          0x0009d280      0x388 /home/zion/gcc_jz2440/arm-linux-gcc-3.4.5-glibc-2.3.6/bin/../lib/gcc/arm-linux/3.4.5/libgcc.a(_addsubdf3.oS)
                0x0009d590                __floatsidf
                0x0009d568                __floatunsidf
                0x0009d280                __subdf3
                0x0009d284                __adddf3
                0x0009d5bc                __extendsfdf2
 .text          0x0009d608      0x580 /home/zion/gcc_jz2440/arm-linux-gcc-3.4.5-glibc-2.3.6/bin/../lib/gcc/arm-linux/3.4.5/libgcc.a(_muldivdf3.oS)
                0x0009d608                __muldf3
                0x0009d91c                __divdf3
 .text          0x0009db88       0xa4 /home/zion/gcc_jz2440/arm-linux-gcc-3.4.5-glibc-2.3.6/bin/../lib/gcc/arm-linux/3.4.5/libgcc.a(_cmpdf2.oS)
                0x0009db88                __gtdf2
                0x0009db90                __ltdf2
                0x0009db88                __gedf2
                0x0009db90                __ledf2
                0x0009db98                __cmpdf2
                0x0009db98                __nedf2
                0x0009db98                __eqdf2
 .text          0x0009dc2c       0x80 /home/zion/gcc_jz2440/arm-linux-gcc-3.4.5-glibc-2.3.6/bin/../lib/gcc/arm-linux/3.4.5/libgcc.a(_fixdfsi.oS)
                0x0009dc2c                __fixdfsi
 .text          0x0009dcac       0x74 /home/zion/gcc_jz2440/arm-linux-gcc-3.4.5-glibc-2.3.6/bin/../lib/gcc/arm-linux/3.4.5/libgcc.a(_fixunsdfsi.oS)
                0x0009dcac                __fixunsdfsi
 .text          0x0009dd20      0x218 /home/zion/gcc_jz2440/arm-linux-gcc-3.4.5-glibc-2.3.6/bin/../lib/gcc/arm-linux/3.4.5/libgcc.a(_addsubsf3.oS)
                0x0009dd20                __subsf3
                0x0009deec                __floatsisf
                0x0009dd24                __addsf3
                0x0009dee4                __floatunsisf
 .text          0x0009df38      0x35c /home/zion/gcc_jz2440/arm-linux-gcc-3.4.5-glibc-2.3.6/bin/../lib/gcc/arm-linux/3.4.5/libgcc.a(_muldivsf3.oS)
                0x0009e0f4                __divsf3
                0x0009df38                __mulsf3
 .text          0x0009e294       0x50 /home/zion/gcc_jz2440/arm-linux-gcc-3.4.5-glibc-2.3.6/bin/../lib/gcc/arm-linux/3.4.5/libgcc.a(_muldi3.oS)
                0x0009e294                __muldi3
 .text          0x0009e2e4       0x50 /home/zion/gcc_jz2440/arm-linux-gcc-3.4.5-glibc-2.3.6/bin/../lib/gcc/arm-linux/3.4.5/libgcc.a(_lshrdi3.oS)
                0x0009e2e4                __lshrdi3
 .text          0x0009e334       0x50 /home/zion/gcc_jz2440/arm-linux-gcc-3.4.5-glibc-2.3.6/bin/../lib/gcc/arm-linux/3.4.5/libgcc.a(_ashldi3.oS)
                0x0009e334                __ashldi3
 .text          0x0009e384       0x50 /home/zion/gcc_jz2440/arm-linux-gcc-3.4.5-glibc-2.3.6/bin/../lib/gcc/arm-linux/3.4.5/libgcc.a(_ashrdi3.oS)
                0x0009e384                __ashrdi3
 .text          0x0009e3d4       0x30 /home/zion/gcc_jz2440/arm-linux-gcc-3.4.5-glibc-2.3.6/bin/../lib/gcc/arm-linux/3.4.5/libgcc.a(_cmpdi2.oS)
                0x0009e3d4                __cmpdi2
 .text          0x0009e404       0xa0 /home/zion/gcc_jz2440/arm-linux-gcc-3.4.5-glibc-2.3.6/bin/../lib/gcc/arm-linux/3.4.5/libgcc.a(_floatdidf.oS)
                0x0009e404                __floatdidf
 .text          0x0009e4a4      0x5b4 /home/zion/gcc_jz2440/arm-linux-gcc-3.4.5-glibc-2.3.6/bin/../lib/gcc/arm-linux/3.4.5/libgcc.a(_divdi3.oS)
                0x0009e4a4                __divdi3
 .text          0x0009ea58      0x604 /home/zion/gcc_jz2440/arm-linux-gcc-3.4.5-glibc-2.3.6/bin/../lib/gcc/arm-linux/3.4.5/libgcc.a(_moddi3.oS)
                0x0009ea58                __moddi3
 .text          0x0009f05c      0x544 /home/zion/gcc_jz2440/arm-linux-gcc-3.4.5-glibc-2.3.6/bin/../lib/gcc/arm-linux/3.4.5/libgcc.a(_udivdi3.oS)
                0x0009f05c                __udivdi3
 .text          0x0009f5a0      0x5a8 /home/zion/gcc_jz2440/arm-linux-gcc-3.4.5-glibc-2.3.6/bin/../lib/gcc/arm-linux/3.4.5/libgcc.a(_umoddi3.oS)
                0x0009f5a0                __umoddi3
 .text          0x0009fb48       0xc4 /home/zion/gcc_jz2440/arm-linux-gcc-3.4.5-glibc-2.3.6/bin/../lib/gcc/arm-linux/3.4.5/../../../../arm-linux/lib/libc_nonshared.a(elf-init.oST)
                0x0009fbac                __libc_csu_fini
                0x0009fb48                __libc_csu_init
 .text          0x0009fc0c       0x34 /home/zion/gcc_jz2440/arm-linux-gcc-3.4.5-glibc-2.3.6/bin/../lib/gcc/arm-linux/3.4.5/../../../../arm-linux/lib/libc_nonshared.a(atexit.oST)
                0x0009fc0c                atexit
 .text          0x0009fc40       0x1c /home/zion/gcc_jz2440/arm-linux-gcc-3.4.5-glibc-2.3.6/bin/../lib/gcc/arm-linux/3.4.5/../../../../arm-linux/lib/libc_nonshared.a(stat64.oST)
                0x0009fc40                stat64
 .text          0x0009fc5c       0x1c /home/zion/gcc_jz2440/arm-linux-gcc-3.4.5-glibc-2.3.6/bin/../lib/gcc/arm-linux/3.4.5/../../../../arm-linux/lib/libc_nonshared.a(lstat64.oST)
                0x0009fc5c                lstat64
 .text          0x0009fc78       0x40 /home/zion/gcc_jz2440/arm-linux-gcc-3.4.5-glibc-2.3.6/bin/../lib/gcc/arm-linux/3.4.5/crtend.o
 *(.gnu.warning)
 *(.glue_7t)
 *(.glue_7)

.fini           0x0009fcb8        0xc
 *(.fini)
 .fini          0x0009fcb8        0x4 /home/zion/gcc_jz2440/arm-linux-gcc-3.4.5-glibc-2.3.6/bin/../lib/gcc/arm-linux/3.4.5/../../../../arm-linux/lib/crti.o
                0x0009fcb8                _fini
 .fini          0x0009fcbc        0x4 /home/zion/gcc_jz2440/arm-linux-gcc-3.4.5-glibc-2.3.6/bin/../lib/gcc/arm-linux/3.4.5/crtbegin.o
 .fini          0x0009fcc0        0x4 /home/zion/gcc_jz2440/arm-linux-gcc-3.4.5-glibc-2.3.6/bin/../lib/gcc/arm-linux/3.4.5/../../../../arm-linux/lib/crtn.o
                0x0009fcc4                PROVIDE (__etext, .)
                0x0009fcc4                PROVIDE (_etext, .)
                0x0009fcc4                PROVIDE (etext, .)

.rodata         0x0009fcc4    0x1ea42
 *(.rodata .rodata.* .gnu.linkonce.r.*)
 .rodata        0x0009fcc4        0x4 /home/zion/gcc_jz2440/arm-linux-gcc-3.4.5-glibc-2.3.6/bin/../lib/gcc/arm-linux/3.4.5/../../../../arm-linux/lib/crt1.o
                0x0009fcc4                _IO_stdin_used
 .rodata.str1.4
                0x0009fcc8      0xb20 applets/built-in.o
                                0xbe0 (size before relaxing)
 .rodata.applets
                0x000a07e8      0xc6c applets/built-in.o
                0x000a07e8                applets
 .rodata.mode_mask
                0x000a1454       0x18 applets/built-in.o
 .rodata.config_file
                0x000a146c       0x12 applets/built-in.o
 .rodata.packed_usage
                0x000a147e     0x5abe applets/built-in.o
 .rodata.usr_bin.1
                0x000a6f3c        0x9 applets/built-in.o
 .rodata.usr_sbin.2
                0x000a6f45        0xa applets/built-in.o
 *fill*         0x000a6f4f        0x1 00
 .rodata.install_dir.3
                0x000a6f50       0x14 applets/built-in.o
 .rodata.mode_chars.0
                0x000a6f64        0xf applets/built-in.o
 *fill*         0x000a6f73        0x1 00
 .rodata.str1.4
                0x000a6f74       0x6d archival/lib.a(ar.o)
                                 0x70 (size before relaxing)
 .rodata.msg_unsupported_err.0
                0x000a6fe1       0x1c archival/lib.a(ar.o)
 *fill*         0x000a6ffd        0x3 00
 .rodata.str1.4
                0x000a7000       0x95 archival/lib.a(bbunzip.o)
                                 0xa4 (size before relaxing)
 *fill*         0x000a7095        0x3 00
 .rodata.str1.4
                0x000a7098        0x9 archival/lib.a(cpio.o)
                                  0xc (size before relaxing)
 .rodata.extra_blbits
                0x000a70a1       0x13 archival/lib.a(gzip.o)
 .rodata.extra_dbits
                0x000a70b4       0x1e archival/lib.a(gzip.o)
 .rodata.extra_lbits
                0x000a70d2       0x1d archival/lib.a(gzip.o)
 .rodata.bl_order
                0x000a70ef       0x13 archival/lib.a(gzip.o)
 *fill*         0x000a7102        0x2 00
 .rodata.str1.4
                0x000a7104       0x17 archival/lib.a(gzip.o)
                                 0x18 (size before relaxing)
 *fill*         0x000a711b        0x1 00
 .rodata.str1.4
                0x000a711c      0x19f archival/lib.a(rpm.o)
                                0x1b4 (size before relaxing)
 *fill*         0x000a72bb        0x1 00
 .rodata.str1.4
                0x000a72bc       0x6b archival/lib.a(rpm2cpio.o)
                                 0x80 (size before relaxing)
 .rodata.tar_longopts
                0x000a7327       0xdd archival/lib.a(tar.o)
 .rodata.str1.4
                0x000a7404      0x1a5 archival/lib.a(tar.o)
                                0x1d8 (size before relaxing)
 *fill*         0x000a75a9        0x3 00
 .rodata.prefilled.1
                0x000a75ac       0x30 archival/lib.a(tar.o)
 .rodata        0x000a75dc        0x8 archival/lib.a(tar.o)
 .rodata.str1.4
                0x000a75e4      0x264 archival/lib.a(unzip.o)
                                0x278 (size before relaxing)
 .rodata.extn.0
                0x000a7848        0xc archival/lib.a(unzip.o)
 .rodata.str1.4
                0x000a7854       0x1e archival/libunarchive/lib.a(check_header_gzip.o)
                                 0x20 (size before relaxing)
 *fill*         0x000a7872        0x2 00
 .rodata.str1.4
                0x000a7874       0xbe archival/libunarchive/lib.a(data_extract_all.o)
                                 0xd8 (size before relaxing)
 *fill*         0x000a7932        0x2 00
 .rodata.str1.4
                0x000a7934       0x62 archival/libunarchive/lib.a(decompress_bunzip2.o)
                                 0x64 (size before relaxing)
 *fill*         0x000a7996        0x2 00
 .rodata.str1.4
                0x000a7998       0x96 archival/libunarchive/lib.a(decompress_uncompress.o)
                                 0x98 (size before relaxing)
 *fill*         0x000a7a2e        0x2 00
 .rodata.str1.4
                0x000a7a30       0x1b archival/libunarchive/lib.a(decompress_unlzma.o)
                                 0x1c (size before relaxing)
 *fill*         0x000a7a4b        0x1 00
 .rodata.mask_bits
                0x000a7a4c       0x22 archival/libunarchive/lib.a(decompress_unzip.o)
 .rodata.border
                0x000a7a6e       0x13 archival/libunarchive/lib.a(decompress_unzip.o)
 .rodata.cpdext
                0x000a7a81       0x1e archival/libunarchive/lib.a(decompress_unzip.o)
 *fill*         0x000a7a9f        0x1 00
 .rodata.cpdist
                0x000a7aa0       0x3c archival/libunarchive/lib.a(decompress_unzip.o)
 .rodata.cplext
                0x000a7adc       0x1f archival/libunarchive/lib.a(decompress_unzip.o)
 *fill*         0x000a7afb        0x1 00
 .rodata.cplens
                0x000a7afc       0x3e archival/libunarchive/lib.a(decompress_unzip.o)
 *fill*         0x000a7b3a        0x2 00
 .rodata.str1.4
                0x000a7b3c       0xc9 archival/libunarchive/lib.a(decompress_unzip.o)
                                 0xcc (size before relaxing)
 *fill*         0x000a7c05        0x3 00
 .rodata.str1.4
                0x000a7c08       0x33 archival/libunarchive/lib.a(get_header_ar.o)
                                 0x34 (size before relaxing)
 *fill*         0x000a7c3b        0x1 00
 .rodata.str1.4
                0x000a7c3c       0xdc archival/libunarchive/lib.a(get_header_cpio.o)
 .rodata.str1.4
                0x000a7d18       0xbd archival/libunarchive/lib.a(get_header_tar.o)
                                 0xc0 (size before relaxing)
 *fill*         0x000a7dd5        0x3 00
 .rodata        0x000a7dd8        0x8 archival/libunarchive/lib.a(get_header_tar.o)
 .rodata.str1.4
                0x000a7de0       0x37 archival/libunarchive/lib.a(header_verbose_list.o)
                                 0x3c (size before relaxing)
 *fill*         0x000a7e17        0x1 00
 .rodata.str1.4
                0x000a7e18        0xc archival/libunarchive/lib.a(open_transformer.o)
 .rodata.str1.4
                0x000a7e24       0x15 archival/libunarchive/lib.a(archive_xread_all_eof.o)
                                 0x18 (size before relaxing)
 *fill*         0x000a7e39        0x3 00
 .rodata.str1.4
                0x000a7e3c       0x1a console-tools/lib.a(chvt.o)
                                 0x1c (size before relaxing)
 *fill*         0x000a7e56        0x2 00
 .rodata.str1.4
                0x000a7e58        0x7 console-tools/lib.a(clear.o)
                                  0x8 (size before relaxing)
 *fill*         0x000a7e5f        0x1 00
 .rodata.str1.4
                0x000a7e60        0xf console-tools/lib.a(deallocvt.o)
                                 0x10 (size before relaxing)
 *fill*         0x000a7e6f        0x1 00
 .rodata.str1.4
                0x000a7e70       0x31 console-tools/lib.a(dumpkmap.o)
                                 0x34 (size before relaxing)
 *fill*         0x000a7ea1        0x3 00
 .rodata.str1.4
                0x000a7ea4       0xc4 console-tools/lib.a(loadfont.o)
                                 0xd0 (size before relaxing)
 .rodata.str1.4
                0x000a7f68       0x22 console-tools/lib.a(loadkmap.o)
                                 0x38 (size before relaxing)
 *fill*         0x000a7f8a        0x2 00
 .rodata.str1.4
                0x000a7f8c        0xb console-tools/lib.a(openvt.o)
                                  0xc (size before relaxing)
 *fill*         0x000a7f97        0x1 00
 .rodata.str1.4
                0x000a7f98       0x13 console-tools/lib.a(reset.o)
                                 0x14 (size before relaxing)
 *fill*         0x000a7fab        0x1 00
 .rodata.str1.4
                0x000a7fac       0x4f console-tools/lib.a(resize.o)
                                 0x50 (size before relaxing)
 .rodata.setconsole_longopts
                0x000a7ffb        0x9 console-tools/lib.a(setconsole.o)
 .rodata.str1.4
                0x000a8004       0x25 console-tools/lib.a(setconsole.o)
                                 0x2c (size before relaxing)
 *fill*         0x000a8029        0x3 00
 .rodata.str1.4
                0x000a802c       0x28 console-tools/lib.a(setkeycodes.o)
 .rodata.str1.4
                0x000a8054       0x16 console-tools/lib.a(setlogcons.o)
                                 0x18 (size before relaxing)
 .rodata.days_in_month
                0x000a806a        0xd coreutils/lib.a(cal.o)
 .rodata.sep1752
                0x000a8077       0x13 coreutils/lib.a(cal.o)
 *fill*         0x000a808a        0x2 00
 .rodata.str1.4
                0x000a808c       0x3a coreutils/lib.a(cal.o)
                                 0x48 (size before relaxing)
 *fill*         0x000a80c6        0x2 00
 .rodata.argv_dash.0
                0x000a80c8        0x8 coreutils/lib.a(cat.o)
 .rodata.str1.4
                0x000a80d0       0x10 coreutils/lib.a(catv.o)
 .rodata.str1.4
                0x000a80e0       0x1b coreutils/lib.a(chmod.o)
                                 0x20 (size before relaxing)
 *fill*         0x000a80fb        0x1 00
 .rodata.str1.4
                0x000a80fc        0x3 coreutils/lib.a(chown.o)
                                  0xc (size before relaxing)
 *fill*         0x000a80ff        0x1 00
 .rodata.str1.4
                0x000a8100       0x42 coreutils/lib.a(chroot.o)
                                 0x48 (size before relaxing)
 *fill*         0x000a8142        0x2 00
 .rodata.str1.4
                0x000a8144       0x14 coreutils/lib.a(cksum.o)
 .rodata.str1.4
                0x000a8158        0x8 coreutils/lib.a(comm.o)
                                  0xc (size before relaxing)
 .rodata.str1.4
                0x000a8160       0x25 coreutils/lib.a(cp.o)
                                 0x28 (size before relaxing)
 .rodata._op_on_field
                0x000a8185       0x1f coreutils/lib.a(cut.o)
 .rodata.optstring
                0x000a81a4        0xb coreutils/lib.a(cut.o)
 *fill*         0x000a81af        0x1 00
 .rodata.str1.4
                0x000a81b0      0x12a coreutils/lib.a(cut.o)
                                0x138 (size before relaxing)
 *fill*         0x000a82da        0x2 00
 .rodata.str1.4
                0x000a82dc       0xfe coreutils/lib.a(date.o)
                                0x11c (size before relaxing)
 *fill*         0x000a83da        0x2 00
 .rodata.isoformats.0
                0x000a83dc       0x10 coreutils/lib.a(date.o)
 .rodata.dd_suffixes
                0x000a83ec       0x58 coreutils/lib.a(dd.o)
 .rodata.str1.4
                0x000a8444       0x41 coreutils/lib.a(dd.o)
                                 0x48 (size before relaxing)
 .rodata.keywords.0
                0x000a8485       0x45 coreutils/lib.a(dd.o)
 *fill*         0x000a84ca        0x2 00
 .rodata.str1.4
                0x000a84cc       0xb4 coreutils/lib.a(df.o)
                                 0xcc (size before relaxing)
 .rodata.str1.4
                0x000a8580       0x3b coreutils/lib.a(dos2unix.o)
                                 0x40 (size before relaxing)
 *fill*         0x000a85bb        0x1 00
 .rodata.str1.4
                0x000a85bc       0x4e coreutils/lib.a(du.o)
                                 0x58 (size before relaxing)
 *fill*         0x000a860a        0x2 00
 .rodata.str1.4
                0x000a860c        0x4 coreutils/lib.a(echo.o)
 .rodata.env_longopts
                0x000a8610       0x1e coreutils/lib.a(env.o)
 *fill*         0x000a862e        0x2 00
 .rodata.str1.4
                0x000a8630       0x13 coreutils/lib.a(env.o)
                                 0x18 (size before relaxing)
 .rodata.expand_longopts.0
                0x000a8643       0x12 coreutils/lib.a(expand.o)
 .rodata.unexpand_longopts.1
                0x000a8655       0x1b coreutils/lib.a(expand.o)
 .rodata.str1.4
                0x000a8670        0x9 coreutils/lib.a(expand.o)
                                 0x1c (size before relaxing)
 *fill*         0x000a8679        0x3 00
 .rodata.str1.4
                0x000a867c       0xea coreutils/lib.a(expr.o)
                                0x12c (size before relaxing)
 .rodata.keywords.0
                0x000a8766       0x21 coreutils/lib.a(expr.o)
 *fill*         0x000a8787        0x1 00
 .rodata.str1.4
                0x000a8788        0xd coreutils/lib.a(fold.o)
                                 0x18 (size before relaxing)
 .rodata.header_fmt_str
                0x000a8795        0xd coreutils/lib.a(head.o)
 *fill*         0x000a87a2        0x2 00
 .rodata.head_suffixes
                0x000a87a4       0x20 coreutils/lib.a(head.o)
 .rodata.head_opts
                0x000a87c4        0x7 coreutils/lib.a(head.o)
 *fill*         0x000a87cb        0x1 00
 .rodata.str1.4
                0x000a87cc        0x5 coreutils/lib.a(hostid.o)
                                  0x8 (size before relaxing)
 *fill*         0x000a87d1        0x3 00
 .rodata.str1.4
                0x000a87d4       0x31 coreutils/lib.a(id.o)
                                 0x38 (size before relaxing)
 .rodata.install_longopts
                0x000a8805       0x42 coreutils/lib.a(install.o)
 *fill*         0x000a8847        0x1 00
 .rodata.str1.4
                0x000a8848       0x72 coreutils/lib.a(install.o)
                                 0x74 (size before relaxing)
 *fill*         0x000a88ba        0x2 00
 .rodata.str1.4
                0x000a88bc        0x7 coreutils/lib.a(ln.o)
                                 0x18 (size before relaxing)
 *fill*         0x000a88c3        0x1 00
 .rodata.str1.4
                0x000a88c4        0x9 coreutils/lib.a(logname.o)
                                  0xc (size before relaxing)
 *fill*         0x000a88cd        0x3 00
 .rodata.opt_flags
                0x000a88d0       0x70 coreutils/lib.a(ls.o)
 .rodata.ls_options
                0x000a8940       0x1e coreutils/lib.a(ls.o)
 .rodata.ls_color_opt
                0x000a895e        0x9 coreutils/lib.a(ls.o)
 *fill*         0x000a8967        0x1 00
 .rodata.str1.4
                0x000a8968       0xc5 coreutils/lib.a(ls.o)
                                 0xdc (size before relaxing)
 *fill*         0x000a8a2d        0x3 00
 .rodata        0x000a8a30       0x3c coreutils/lib.a(ls.o)
 .rodata.dotdir.0
                0x000a8a6c        0x4 coreutils/lib.a(ls.o)
 .rodata.str1.4
                0x000a8a70       0xe4 coreutils/lib.a(md5_sha1_sum.o)
                                 0xf0 (size before relaxing)
 .rodata.mkdir_longopts
                0x000a8b54       0x12 coreutils/lib.a(mkdir.o)
 *fill*         0x000a8b66        0x2 00
 .rodata.str1.4
                0x000a8b68       0x16 coreutils/lib.a(mkdir.o)
                                 0x18 (size before relaxing)
 *fill*         0x000a8b7e        0x2 00
 .rodata.modes_cubp
                0x000a8b80        0xc coreutils/lib.a(mknod.o)
 .rodata.modes_chars
                0x000a8b8c        0x8 coreutils/lib.a(mknod.o)
 .rodata.fmt    0x000a8b94       0x2e coreutils/lib.a(mv.o)
 .rodata.mv_longopts
                0x000a8bc2       0x17 coreutils/lib.a(mv.o)
 *fill*         0x000a8bd9        0x3 00
 .rodata.str1.4
                0x000a8bdc       0x53 coreutils/lib.a(mv.o)
                                 0x58 (size before relaxing)
 *fill*         0x000a8c2f        0x1 00
 .rodata.str1.4
                0x000a8c30       0x10 coreutils/lib.a(nice.o)
                                 0x18 (size before relaxing)
 .rodata.str1.4
                0x000a8c40       0x24 coreutils/lib.a(nohup.o)
                                 0x28 (size before relaxing)
 .rodata.od_o2si
                0x000a8c64       0x13 coreutils/lib.a(od.o)
 *fill*         0x000a8c77        0x1 00
 .rodata.str1.4
                0x000a8c78      0x102 coreutils/lib.a(od.o)
                                0x168 (size before relaxing)
 *fill*         0x000a8d7a        0x2 00
 .rodata.add_strings
                0x000a8d7c       0x34 coreutils/lib.a(od.o)
 .rodata.od_opts
                0x000a8db0       0x15 coreutils/lib.a(od.o)
 *fill*         0x000a8dc5        0x3 00
 .rodata.str1.4
                0x000a8dc8        0x5 coreutils/lib.a(printf.o)
                                 0x10 (size before relaxing)
 *fill*         0x000a8dcd        0x3 00
 .rodata.str1.4
                0x000a8dd0        0x3 coreutils/lib.a(readlink.o)
                                  0x8 (size before relaxing)
 *fill*         0x000a8dd3        0x1 00
 .rodata.str1.4
                0x000a8dd4       0x22 coreutils/lib.a(rm.o)
                                 0x2c (size before relaxing)
 *fill*         0x000a8df6        0x2 00
 .rodata.str1.4
                0x000a8df8        0x4 coreutils/lib.a(seq.o)
 .rodata.sfx    0x000a8dfc       0x28 coreutils/lib.a(sleep.o)
 .rodata.OPT_STR
                0x000a8e24       0x18 coreutils/lib.a(sort.o)
 .rodata.str1.4
                0x000a8e3c       0x77 coreutils/lib.a(sort.o)
                                 0x84 (size before relaxing)
 *fill*         0x000a8eb3        0x1 00
 .rodata.split_suffices
                0x000a8eb4       0x28 coreutils/lib.a(split.o)
 .rodata.str1.4
                0x000a8edc       0x2f coreutils/lib.a(split.o)
                                 0x40 (size before relaxing)
 *fill*         0x000a8f0b        0x1 00
 .rodata.str1.4
                0x000a8f0c      0x482 coreutils/lib.a(stat.o)
                                0x4d4 (size before relaxing)
 *fill*         0x000a938e        0x2 00
 .rodata.humantypes.0
                0x000a9390      0x120 coreutils/lib.a(stat.o)
 .rodata.stty_suffixes
                0x000a94b0       0x20 coreutils/lib.a(stty.o)
 .rodata.str1.4
                0x000a94d0      0x3b8 coreutils/lib.a(stty.o)
                                0x3e0 (size before relaxing)
 .rodata.mode_info
                0x000a9888      0x550 coreutils/lib.a(stty.o)
 .rodata.stty_dec
                0x000a9dd8        0x4 coreutils/lib.a(stty.o)
 .rodata.stty_crt
                0x000a9ddc        0x4 coreutils/lib.a(stty.o)
 .rodata.stty_LCASE
                0x000a9de0        0x6 coreutils/lib.a(stty.o)
 .rodata.stty_lcase
                0x000a9de6        0x6 coreutils/lib.a(stty.o)
 .rodata.stty_tabs
                0x000a9dec        0x5 coreutils/lib.a(stty.o)
 .rodata.decctlq
                0x000a9df1        0x8 coreutils/lib.a(stty.o)
 .rodata.cbreak
                0x000a9df9        0x7 coreutils/lib.a(stty.o)
 .rodata.litout
                0x000a9e00        0x7 coreutils/lib.a(stty.o)
 .rodata.stty_pass8
                0x000a9e07        0x6 coreutils/lib.a(stty.o)
 .rodata.raw    0x000a9e0d        0x4 coreutils/lib.a(stty.o)
 .rodata.cooked
                0x000a9e11        0x7 coreutils/lib.a(stty.o)
 .rodata.stty_sane
                0x000a9e18        0x5 coreutils/lib.a(stty.o)
 .rodata.stty_ek
                0x000a9e1d        0x3 coreutils/lib.a(stty.o)
 .rodata.stty_nl
                0x000a9e20        0x3 coreutils/lib.a(stty.o)
 .rodata.stty_oddp
                0x000a9e23        0x5 coreutils/lib.a(stty.o)
 .rodata.parity
                0x000a9e28        0x7 coreutils/lib.a(stty.o)
 .rodata.evenp  0x000a9e2f        0x6 coreutils/lib.a(stty.o)
 *fill*         0x000a9e35        0x3 00
 .rodata.control_info
                0x000a9e38       0x88 coreutils/lib.a(stty.o)
 .rodata.stty_time
                0x000a9ec0        0x5 coreutils/lib.a(stty.o)
 .rodata.stty_min
                0x000a9ec5        0x4 coreutils/lib.a(stty.o)
 .rodata.stty_swtch
                0x000a9ec9        0x6 coreutils/lib.a(stty.o)
 .rodata.stty_eol
                0x000a9ecf        0x4 coreutils/lib.a(stty.o)
 .rodata.stty_eof
                0x000a9ed3        0x4 coreutils/lib.a(stty.o)
 .rodata.tcflag_offsets.0
                0x000a9ed7        0x4 coreutils/lib.a(stty.o)
 *fill*         0x000a9edb        0x1 00
 .rodata        0x000a9edc       0x74 coreutils/lib.a(stty.o)
 .rodata.params.1
                0x000a9f50       0x31 coreutils/lib.a(stty.o)
 *fill*         0x000a9f81        0x3 00
 .rodata.str1.4
                0x000a9f84       0x1f coreutils/lib.a(sum.o)
                                 0x28 (size before relaxing)
 .rodata.header_fmt
                0x000a9fa3        0xd coreutils/lib.a(tail.o)
 .rodata.tail_suffixes
                0x000a9fb0       0x20 coreutils/lib.a(tail.o)
 .rodata.str1.4
                0x000a9fd0       0x1d coreutils/lib.a(tail.o)
                                 0x20 (size before relaxing)
 *fill*         0x000a9fed        0x3 00
 .rodata        0x000a9ff0        0x4 coreutils/lib.a(tee.o)
 .rodata.ops    0x000a9ff4      0x140 coreutils/lib.a(test.o)
 .rodata.str1.4
                0x000aa134       0x74 coreutils/lib.a(test.o)
                                 0x80 (size before relaxing)
 .rodata.classes.0
                0x000aa1a8       0x49 coreutils/lib.a(tr.o)
 *fill*         0x000aa1f1        0x3 00
 .rodata.str1.4
                0x000aa1f4       0x18 coreutils/lib.a(tr.o)
 .rodata.str1.4
                0x000aa20c        0xa coreutils/lib.a(tty.o)
                                 0x10 (size before relaxing)
 .rodata.utsname_offset
                0x000aa216        0xc coreutils/lib.a(uname.o)
 .rodata.options
                0x000aa222        0x8 coreutils/lib.a(uname.o)
 *fill*         0x000aa22a        0x2 00
 .rodata.str1.4
                0x000aa22c       0x17 coreutils/lib.a(uname.o)
                                 0x20 (size before relaxing)
 *fill*         0x000aa243        0x1 00
 .rodata        0x000aa244        0xc coreutils/lib.a(uniq.o)
 .rodata.str1.4
                0x000aa250        0x8 coreutils/lib.a(uniq.o)
                                  0xc (size before relaxing)
 .rodata.str1.4
                0x000aa258       0x3c coreutils/lib.a(uudecode.o)
                                 0x58 (size before relaxing)
 .rodata.str1.4
                0x000aa294       0x30 coreutils/lib.a(uuencode.o)
                                 0x38 (size before relaxing)
 .rodata.str1.4
                0x000aa2c4       0x1f coreutils/lib.a(wc.o)
                                 0x38 (size before relaxing)
 *fill*         0x000aa2e3        0x1 00
 .rodata.str1.4
                0x000aa2e4       0x69 coreutils/lib.a(who.o)
                                 0x6c (size before relaxing)
 *fill*         0x000aa34d        0x3 00
 .rodata.str1.4
                0x000aa350        0x3 coreutils/libcoreutils/lib.a(getopt_mk_fifo_nod.o)
                                  0x4 (size before relaxing)
 *fill*         0x000aa353        0x1 00
 .rodata.str1.4
                0x000aa354       0x12 debianutils/lib.a(mktemp.o)
                                 0x14 (size before relaxing)
 .rodata.runparts_longopts
                0x000aa366       0x1d debianutils/lib.a(run_parts.o)
 *fill*         0x000aa383        0x1 00
 .rodata.str1.4
                0x000aa384       0x43 debianutils/lib.a(run_parts.o)
                                 0x44 (size before relaxing)
 .rodata.start_stop_daemon_longopts
                0x000aa3c7       0x95 debianutils/lib.a(start_stop_daemon.o)
 .rodata.str1.4
                0x000aa45c      0x160 debianutils/lib.a(start_stop_daemon.o)
                                0x180 (size before relaxing)
 .rodata.str1.4
                0x000aa5bc       0x9d e2fsprogs/lib.a(chattr.o)
                                 0xa0 (size before relaxing)
 .rodata.flags_letter.0
                0x000aa659        0xd e2fsprogs/lib.a(chattr.o)
 *fill*         0x000aa666        0x2 00
 .rodata.flags_val.1
                0x000aa668       0x30 e2fsprogs/lib.a(chattr.o)
 .rodata.str1.4
                0x000aa698       0xec e2fsprogs/lib.a(e2fs_lib.o)
                                 0xf0 (size before relaxing)
 .rodata.flags_array
                0x000aa784       0xa8 e2fsprogs/lib.a(e2fs_lib.o)
 .rodata.ignored_types
                0x000aa82c       0x2e e2fsprogs/lib.a(fsck.o)
 *fill*         0x000aa85a        0x2 00
 .rodata.str1.4
                0x000aa85c      0x30d e2fsprogs/lib.a(fsck.o)
                                0x328 (size before relaxing)
 *fill*         0x000aab69        0x3 00
 .rodata.str1.4
                0x000aab6c       0x2a e2fsprogs/lib.a(lsattr.o)
                                 0x44 (size before relaxing)
 .rodata.vValues
                0x000aab96       0x18 editors/lib.a(awk.o)
 .rodata.vNames
                0x000aabae       0x6b editors/lib.a(awk.o)
 .rodata.EMSG_INV_FMT
                0x000aac19       0x19 editors/lib.a(awk.o)
 .rodata.PRIMES
                0x000aac32        0xa editors/lib.a(awk.o)
 .rodata.tokeninfo
                0x000aac3c      0x18c editors/lib.a(awk.o)
 .rodata.tokenlist
                0x000aadc8      0x1b9 editors/lib.a(awk.o)
 .rodata.EMSG_UNEXP_TOKEN
                0x000aaf81       0x11 editors/lib.a(awk.o)
 .rodata.EMSG_UNEXP_EOS
                0x000aaf92       0x19 editors/lib.a(awk.o)
 .rodata.EMSG_DIV_BY_ZERO
                0x000aafab       0x11 editors/lib.a(awk.o)
 .rodata.EMSG_UNDEF_FUNC
                0x000aafbc       0x1b editors/lib.a(awk.o)
 .rodata.EMSG_POSSIBLE_ERROR
                0x000aafd7       0x16 editors/lib.a(awk.o)
 .rodata.EMSG_NOT_ARRAY
                0x000aafed        0xd editors/lib.a(awk.o)
 .rodata.EMSG_TOO_FEW_ARGS
                0x000aaffa       0x1e editors/lib.a(awk.o)
 .rodata.EMSG_INTERNAL_ERROR
                0x000ab018        0xf editors/lib.a(awk.o)
 *fill*         0x000ab027        0x1 00
 .rodata.str1.4
                0x000ab028       0xd9 editors/lib.a(awk.o)
                                0x100 (size before relaxing)
 .rodata.fmt_eof
                0x000ab101       0x10 editors/lib.a(cmp.o)
 .rodata.fmt_differ
                0x000ab111       0x22 editors/lib.a(cmp.o)
 .rodata.fmt_l_opt
                0x000ab133       0x16 editors/lib.a(cmp.o)
 .rodata.opt_chars
                0x000ab149        0x3 editors/lib.a(cmp.o)
 .rodata.str1.4
                0x000ab14c       0x10 editors/lib.a(cmp.o)
                                 0x14 (size before relaxing)
 .rodata.str1.4
                0x000ab15c      0x1bb editors/lib.a(diff.o)
                                0x1ec (size before relaxing)
 *fill*         0x000ab317        0x1 00
 .rodata.str1.4
                0x000ab318      0x35a editors/lib.a(ed.o)
                                0x37c (size before relaxing)
 *fill*         0x000ab672        0x2 00
 .rodata.str1.4
                0x000ab674       0xf5 editors/lib.a(patch.o)
                                0x104 (size before relaxing)
 .rodata.semicolon_whitespace
                0x000ab769        0x7 editors/lib.a(sed.o)
 .rodata.str1.4
                0x000ab770      0x1db editors/lib.a(sed.o)
                                0x208 (size before relaxing)
 .rodata.SOn    0x000ab94b        0x5 editors/lib.a(vi.o)
 .rodata.SOs    0x000ab950        0x5 editors/lib.a(vi.o)
 .rodata.bell   0x000ab955        0x2 editors/lib.a(vi.o)
 .rodata.Ceos   0x000ab957        0x5 editors/lib.a(vi.o)
 .rodata.CMdown
                0x000ab95c        0x2 editors/lib.a(vi.o)
 .rodata.CMup   0x000ab95e        0x4 editors/lib.a(vi.o)
 .rodata.CMrc   0x000ab962        0x9 editors/lib.a(vi.o)
 .rodata.Ceol   0x000ab96b        0x5 editors/lib.a(vi.o)
 .rodata.str1.4
                0x000ab970      0x77b editors/lib.a(vi.o)
                                0x7f0 (size before relaxing)
 *fill*         0x000ac0eb        0x1 00
 .rodata.esccmds.2
                0x000ac0ec      0x108 editors/lib.a(vi.o)
 .rodata.cmd_mode_indicator.6
                0x000ac1f4        0x5 editors/lib.a(vi.o)
 *fill*         0x000ac1f9        0x3 00
 .rodata.str1.4
                0x000ac1fc       0x45 findutils/lib.a(find.o)
                                 0x78 (size before relaxing)
 .rodata.params.2
                0x000ac241       0x82 findutils/lib.a(find.o)
 *fill*         0x000ac2c3        0x1 00
 .rodata.find_suffixes.3
                0x000ac2c4       0x30 findutils/lib.a(find.o)
 .rodata.options.1
                0x000ac2f4       0x19 findutils/lib.a(find.o)
 *fill*         0x000ac30d        0x3 00
 .rodata.str1.4
                0x000ac310       0x4d findutils/lib.a(grep.o)
                                 0x68 (size before relaxing)
 *fill*         0x000ac35d        0x3 00
 .rodata.str1.4
                0x000ac360       0xec findutils/lib.a(xargs.o)
                                0x10c (size before relaxing)
 .rodata.magic.0
                0x000ac44c        0xc init/lib.a(halt.o)
 .rodata.signals.1
                0x000ac458        0xc init/lib.a(halt.o)
 .rodata.str1.4
                0x000ac464        0x9 init/lib.a(halt.o)
                                 0x18 (size before relaxing)
 *fill*         0x000ac46d        0x3 00
 .rodata.str1.4
                0x000ac470      0x2cd init/lib.a(init.o)
                                0x334 (size before relaxing)
 *fill*         0x000ac73d        0x3 00
 .rodata.environment
                0x000ac740       0x14 init/lib.a(init.o)
 .rodata.actions
                0x000ac754       0x48 init/lib.a(init.o)
 .rodata.press_enter.0
                0x000ac79c       0x2f init/lib.a(init.o)
 *fill*         0x000ac7cb        0x1 00
 .rodata.str1.4
                0x000ac7cc       0x15 init/lib.a(mesg.o)
                                 0x1c (size before relaxing)
 *fill*         0x000ac7e1        0x3 00
 .rodata.str1.4
                0x000ac7e4      0x20a ipsvd/lib.a(tcpudp.o)
                                0x218 (size before relaxing)
 *fill*         0x000ac9ee        0x2 00
 .rodata.str1.4
                0x000ac9f0       0x46 libbb/lib.a(bb_pwd.o)
                                 0x48 (size before relaxing)
 *fill*         0x000aca36        0x2 00
 .rodata.str1.4
                0x000aca38        0x7 libbb/lib.a(concat_path_file.o)
                                 0x10 (size before relaxing)
 *fill*         0x000aca3f        0x1 00
 .rodata.str1.4
                0x000aca40      0x18c libbb/lib.a(copy_file.o)
                                0x1b4 (size before relaxing)
 .rodata.conv_str
                0x000acbcc       0x21 libbb/lib.a(dump.o)
 .rodata.lcc    0x000acbed        0x7 libbb/lib.a(dump.o)
 .rodata.index_str
                0x000acbf4       0x10 libbb/lib.a(dump.o)
 .rodata.size_conv_str
                0x000acc04       0x19 libbb/lib.a(dump.o)
 *fill*         0x000acc1d        0x3 00
 .rodata.str1.4
                0x000acc20       0xe0 libbb/lib.a(dump.o)
                                 0xf8 (size before relaxing)
 .rodata.list.5
                0x000acd00       0x7f libbb/lib.a(dump.o)
 *fill*         0x000acd7f        0x1 00
 .rodata.str1.4
                0x000acd80       0x30 libbb/lib.a(get_console.o)
                                 0x58 (size before relaxing)
 .rodata.console_names.0
                0x000acdb0        0xc libbb/lib.a(get_console.o)
 .rodata.bb_null_long_options
                0x000acdbc       0x10 libbb/lib.a(getopt32.o)
 .rodata.zero_and_units.0
                0x000acdcc        0x6 libbb/lib.a(human_readable.o)
 .rodata.fmt.1  0x000acdd2        0x5 libbb/lib.a(human_readable.o)
 .rodata.fmt_tenths.2
                0x000acdd7        0xa libbb/lib.a(human_readable.o)
 *fill*         0x000acde1        0x3 00
 .rodata.str1.4
                0x000acde4       0x35 libbb/lib.a(make_directory.o)
                                 0x38 (size before relaxing)
 *fill*         0x000ace19        0x3 00
 .rodata.C_array.0
                0x000ace1c      0x100 libbb/lib.a(md5.o)
 .rodata.P_array.1
                0x000acf1c       0x40 libbb/lib.a(md5.o)
 .rodata.S_array.2
                0x000acf5c       0x10 libbb/lib.a(md5.o)
 .rodata.bb_path_wtmp_file
                0x000acf6c        0xe libbb/lib.a(messages.o)
                0x000acf6c                bb_path_wtmp_file
 *fill*         0x000acf7a        0x2 00
 .rodata.const_int_1
                0x000acf7c        0x4 libbb/lib.a(messages.o)
                0x000acf7c                const_int_1
 .rodata.bb_PATH_root_path
                0x000acf80       0x23 libbb/lib.a(messages.o)
                0x000acf80                bb_PATH_root_path
 .rodata.bb_default_login_shell
                0x000acfa3        0x9 libbb/lib.a(messages.o)
                0x000acfa3                bb_default_login_shell
 .rodata.bb_busybox_exec_path
                0x000acfac        0xf libbb/lib.a(messages.o)
                0x000acfac                bb_busybox_exec_path
 .rodata.bb_dev_null
                0x000acfbb        0xa libbb/lib.a(messages.o)
                0x000acfbb                bb_dev_null
 .rodata.bb_path_motd_file
                0x000acfc5        0xa libbb/lib.a(messages.o)
                0x000acfc5                bb_path_motd_file
 .rodata.bb_path_gshadow_file
                0x000acfcf        0xd libbb/lib.a(messages.o)
                0x000acfcf                bb_path_gshadow_file
 .rodata.bb_path_group_file
                0x000acfdc        0xb libbb/lib.a(messages.o)
                0x000acfdc                bb_path_group_file
 .rodata.bb_path_shadow_file
                0x000acfe7        0xc libbb/lib.a(messages.o)
                0x000acfe7                bb_path_shadow_file
 .rodata.bb_path_passwd_file
                0x000acff3        0xc libbb/lib.a(messages.o)
                0x000acff3                bb_path_passwd_file
 .rodata.bb_hexdigits_upcase
                0x000acfff       0x11 libbb/lib.a(messages.o)
                0x000acfff                bb_hexdigits_upcase
 .rodata.bb_str_default
                0x000ad010        0x8 libbb/lib.a(messages.o)
                0x000ad010                bb_str_default
 .rodata.bb_msg_standard_output
                0x000ad018       0x10 libbb/lib.a(messages.o)
                0x000ad018                bb_msg_standard_output
 .rodata.bb_msg_standard_input
                0x000ad028        0xf libbb/lib.a(messages.o)
                0x000ad028                bb_msg_standard_input
 .rodata.bb_msg_invalid_arg
                0x000ad037       0x1e libbb/lib.a(messages.o)
                0x000ad037                bb_msg_invalid_arg
 .rodata.bb_msg_requires_arg
                0x000ad055       0x18 libbb/lib.a(messages.o)
                0x000ad055                bb_msg_requires_arg
 .rodata.bb_msg_perm_denied_are_you_root
                0x000ad06d       0x23 libbb/lib.a(messages.o)
                0x000ad06d                bb_msg_perm_denied_are_you_root
 .rodata.bb_msg_can_not_create_raw_socket
                0x000ad090       0x18 libbb/lib.a(messages.o)
                0x000ad090                bb_msg_can_not_create_raw_socket
 .rodata.bb_msg_unknown
                0x000ad0a8        0xa libbb/lib.a(messages.o)
                0x000ad0a8                bb_msg_unknown
 .rodata.bb_msg_read_error
                0x000ad0b2        0xb libbb/lib.a(messages.o)
                0x000ad0b2                bb_msg_read_error
 .rodata.bb_msg_write_error
                0x000ad0bd        0xc libbb/lib.a(messages.o)
                0x000ad0bd                bb_msg_write_error
 .rodata.bb_msg_invalid_date
                0x000ad0c9       0x12 libbb/lib.a(messages.o)
                0x000ad0c9                bb_msg_invalid_date
 .rodata.bb_msg_memory_exhausted
                0x000ad0db       0x11 libbb/lib.a(messages.o)
                0x000ad0db                bb_msg_memory_exhausted
 .rodata.bb_banner
                0x000ad0ec       0x29 libbb/lib.a(messages.o)
                0x000ad0ec                bb_banner
 *fill*         0x000ad115        0x3 00
 .rodata.mode_chars
                0x000ad118        0x8 libbb/lib.a(mode_string.o)
 .rodata.type_chars
                0x000ad120       0x10 libbb/lib.a(mode_string.o)
 .rodata.bb_path_mtab_file
                0x000ad130        0xd libbb/lib.a(mtab_file.o)
                0x000ad130                bb_path_mtab_file
 *fill*         0x000ad13d        0x3 00
 .rodata.who_mask.0
                0x000ad140       0x10 libbb/lib.a(parse_mode.o)
 .rodata.perm_mask.1
                0x000ad150       0x18 libbb/lib.a(parse_mode.o)
 .rodata.who_chars.2
                0x000ad168        0x5 libbb/lib.a(parse_mode.o)
 .rodata.perm_chars.3
                0x000ad16d        0x7 libbb/lib.a(parse_mode.o)
 .rodata.charmap.0
                0x000ad174       0x12 libbb/lib.a(process_escape_sequence.o)
 *fill*         0x000ad186        0x2 00
 .rodata.str1.4
                0x000ad188       0x1d libbb/lib.a(procps.o)
                                 0x44 (size before relaxing)
 *fill*         0x000ad1a5        0x3 00
 .rodata.str1.4
                0x000ad1a8       0x66 libbb/lib.a(remove_file.o)
                                 0xa4 (size before relaxing)
 *fill*         0x000ad20e        0x2 00
 .rodata.speeds
                0x000ad210       0x50 libbb/lib.a(speed_table.o)
 .rodata.signals
                0x000ad260       0xe0 libbb/lib.a(u_signal_names.o)
 .rodata.str1.4
                0x000ad340        0x4 libbb/lib.a(u_signal_names.o)
 .rodata.bb_uuenc_tbl_std
                0x000ad344       0x41 libbb/lib.a(uuencode.o)
                0x000ad344                bb_uuenc_tbl_std
 .rodata.bb_uuenc_tbl_base64
                0x000ad385       0x43 libbb/lib.a(uuencode.o)
                0x000ad385                bb_uuenc_tbl_base64
 .rodata.str1.4
                0x000ad3c8       0x17 libbb/lib.a(warn_ignoring_args.o)
                                 0x18 (size before relaxing)
 *fill*         0x000ad3df        0x1 00
 .rodata.str1.4
                0x000ad3e0       0x61 libbb/lib.a(xatonum.o)
                                 0x64 (size before relaxing)
 *fill*         0x000ad441        0x3 00
 .rodata.str1.4
                0x000ad444       0x4a libbb/lib.a(xconnect.o)
                                 0x4c (size before relaxing)
 *fill*         0x000ad48e        0x2 00
 .rodata.str1.4
                0x000ad490      0x118 libbb/lib.a(xfuncs.o)
                                0x12c (size before relaxing)
 .rodata.str1.4
                0x000ad5a8        0x7 libbb/lib.a(xgetcwd.o)
                                  0x8 (size before relaxing)
 *fill*         0x000ad5af        0x1 00
 .rodata.str1.4
                0x000ad5b0        0xd libbb/lib.a(xregcomp.o)
                                 0x10 (size before relaxing)
 .rodata._sp_off
                0x000ad5bd        0x6 libpwdgrp/lib.a(pwd_grp.o)
 .rodata.gr_off
                0x000ad5c3        0x3 libpwdgrp/lib.a(pwd_grp.o)
 .rodata.sp_off
                0x000ad5c6        0x9 libpwdgrp/lib.a(pwd_grp.o)
 .rodata.pw_off
                0x000ad5cf        0x7 libpwdgrp/lib.a(pwd_grp.o)
 *fill*         0x000ad5d6        0x2 00
 .rodata.str1.4
                0x000ad5d8       0x54 libpwdgrp/lib.a(pwd_grp.o)
                                 0x5c (size before relaxing)
 .rodata.format.1
                0x000ad62c        0x4 libpwdgrp/lib.a(pwd_grp.o)
 .rodata.ld_format.0
                0x000ad630        0x5 libpwdgrp/lib.a(pwd_grp.o)
 *fill*         0x000ad635        0x3 00
 .rodata.str1.4
                0x000ad638       0x16 libpwdgrp/lib.a(uidgid_get.o)
                                 0x18 (size before relaxing)
 *fill*         0x000ad64e        0x2 00
 .rodata.str1.4
                0x000ad650       0x40 loginutils/lib.a(addgroup.o)
                                 0x68 (size before relaxing)
 .rodata.prog.0
                0x000ad690        0x7 loginutils/lib.a(adduser.o)
 *fill*         0x000ad697        0x1 00
 .rodata.str1.4
                0x000ad698       0xf0 loginutils/lib.a(adduser.o)
                                0x104 (size before relaxing)
 .rodata.chpasswd_longopts
                0x000ad788       0x13 loginutils/lib.a(chpasswd.o)
 *fill*         0x000ad79b        0x1 00
 .rodata.str1.4
                0x000ad79c       0x6a loginutils/lib.a(chpasswd.o)
                                 0x70 (size before relaxing)
 *fill*         0x000ad806        0x2 00
 .rodata.str1.4
                0x000ad808       0x14 loginutils/lib.a(deluser.o)
                                 0x3c (size before relaxing)
 .rodata.init_chardata
                0x000ad81c        0x4 loginutils/lib.a(getty.o)
 .rodata.opt_string
                0x000ad820       0x11 loginutils/lib.a(getty.o)
 *fill*         0x000ad831        0x3 00
 .rodata.str1.4
                0x000ad834       0xee loginutils/lib.a(getty.o)
                                0x118 (size before relaxing)
 .rodata.erase.0
                0x000ad922        0xc loginutils/lib.a(getty.o)
 *fill*         0x000ad92e        0x2 00
 .rodata        0x000ad930       0x44 loginutils/lib.a(getty.o)
 .rodata.str1.4
                0x000ad974      0x181 loginutils/lib.a(login.o)
                                0x1a0 (size before relaxing)
 *fill*         0x000adaf5        0x3 00
 .rodata.str1.4
                0x000adaf8      0x1a0 loginutils/lib.a(passwd.o)
                                0x1ac (size before relaxing)
 .rodata.str1.4
                0x000adc98       0x58 loginutils/lib.a(su.o)
                                 0x6c (size before relaxing)
 .rodata.str1.4
                0x000adcf0      0x157 loginutils/lib.a(sulogin.o)
                                0x180 (size before relaxing)
 *fill*         0x000ade47        0x1 00
 .rodata.forbid
                0x000ade48       0x3c loginutils/lib.a(sulogin.o)
 .rodata.str1.4
                0x000ade84       0x53 loginutils/lib.a(vlock.o)
                                 0x6c (size before relaxing)
 *fill*         0x000aded7        0x1 00
 .rodata.str1.4
                0x000aded8      0x232 miscutils/lib.a(adjtimex.o)
                                0x248 (size before relaxing)
 *fill*         0x000ae10a        0x2 00
 .rodata.ret_code_descript
                0x000ae10c       0x18 miscutils/lib.a(adjtimex.o)
 .rodata.statlist
                0x000ae124       0x70 miscutils/lib.a(adjtimex.o)
 .rodata.policies
                0x000ae194       0x30 miscutils/lib.a(chrt.o)
 .rodata        0x000ae1c4       0x3c miscutils/lib.a(chrt.o)
 .rodata.str1.4
                0x000ae200       0xa9 miscutils/lib.a(chrt.o)
                                 0xb0 (size before relaxing)
 *fill*         0x000ae2a9        0x3 00
 .rodata.str1.4
                0x000ae2ac      0x2b5 miscutils/lib.a(crond.o)
                                0x2dc (size before relaxing)
 .rodata.DowAry
                0x000ae561       0x16 miscutils/lib.a(crond.o)
 .rodata.MonAry
                0x000ae577       0x25 miscutils/lib.a(crond.o)
 .rodata.str1.4
                0x000ae59c      0x13f miscutils/lib.a(crontab.o)
                                0x1b0 (size before relaxing)
 *fill*         0x000ae6db        0x1 00
 .rodata.operators
                0x000ae6dc       0xb0 miscutils/lib.a(dc.o)
 .rodata.str1.4
                0x000ae78c       0x55 miscutils/lib.a(dc.o)
                                 0x5c (size before relaxing)
 *fill*         0x000ae7e1        0x3 00
 .rodata.str1.4
                0x000ae7e4       0x1f miscutils/lib.a(eject.o)
                                 0x24 (size before relaxing)
 .rodata.hdparm_options
                0x000ae803       0x45 miscutils/lib.a(hdparm.o)
 .rodata.xfermode_val
                0x000ae848       0x20 miscutils/lib.a(hdparm.o)
 .rodata.xfermode_name
                0x000ae868       0xa0 miscutils/lib.a(hdparm.o)
 .rodata.str1.4
                0x000ae908     0x1e86 miscutils/lib.a(hdparm.o)
                               0x1f20 (size before relaxing)
 *fill*         0x000b078e        0x2 00
 .rodata.secu_str
                0x000b0790       0x18 miscutils/lib.a(hdparm.o)
 .rodata.cmd_feat_str
                0x000b07a8       0xc0 miscutils/lib.a(hdparm.o)
 .rodata.ata1_cfg_str
                0x000b0868       0x40 miscutils/lib.a(hdparm.o)
 .rodata.minor_str
                0x000b08a8       0x90 miscutils/lib.a(hdparm.o)
 .rodata.actual_ver
                0x000b0938       0x24 miscutils/lib.a(hdparm.o)
 .rodata.pkt_str
                0x000b095c       0x80 miscutils/lib.a(hdparm.o)
 .rodata.BuffType
                0x000b09dc       0x10 miscutils/lib.a(hdparm.o)
 .rodata.cfg_str
                0x000b09ec       0x40 miscutils/lib.a(hdparm.o)
 .rodata.thousand.0
                0x000b0a2c       0x10 miscutils/lib.a(hdparm.o)
 .rodata.str1.4
                0x000b0a3c       0x54 miscutils/lib.a(last.o)
                                 0xa0 (size before relaxing)
 .rodata.controls
                0x000b0a90       0x21 miscutils/lib.a(less.o)
 .rodata.ctrlconv
                0x000b0ab1       0x21 miscutils/lib.a(less.o)
 *fill*         0x000b0ad2        0x2 00
 .rodata.str1.4
                0x000b0ad4      0x22c miscutils/lib.a(less.o)
                                0x254 (size before relaxing)
 .rodata.str1.4
                0x000b0d00      0x139 miscutils/lib.a(makedevs.o)
                                0x144 (size before relaxing)
 *fill*         0x000b0e39        0x3 00
 .rodata.str1.4
                0x000b0e3c       0x5e miscutils/lib.a(mountpoint.o)
                                 0x68 (size before relaxing)
 *fill*         0x000b0e9a        0x2 00
 .rodata.str1.4
                0x000b0e9c      0x10e miscutils/lib.a(mt.o)
                                0x140 (size before relaxing)
 *fill*         0x000b0faa        0x2 00
 .rodata.opcodes
                0x000b0fac      0x118 miscutils/lib.a(mt.o)
 .rodata.str1.4
                0x000b10c4        0xd miscutils/lib.a(raidautorun.o)
                                 0x10 (size before relaxing)
 *fill*         0x000b10d1        0x3 00
 .rodata.str1.4
                0x000b10d4        0x7 miscutils/lib.a(runlevel.o)
                                 0x10 (size before relaxing)
 *fill*         0x000b10db        0x1 00
 .rodata.str1.4
                0x000b10dc      0x112 miscutils/lib.a(rx.o)
                                0x120 (size before relaxing)
 *fill*         0x000b11ee        0x2 00
 .rodata.str1.4
                0x000b11f0       0x1f miscutils/lib.a(strings.o)
                                 0x28 (size before relaxing)
 *fill*         0x000b120f        0x1 00
 .rodata.str1.4
                0x000b1210       0x47 miscutils/lib.a(taskset.o)
                                 0x4c (size before relaxing)
 *fill*         0x000b1257        0x1 00
 .rodata        0x000b1258        0xc miscutils/lib.a(taskset.o)
 .rodata.posix_format
                0x000b1264       0x17 miscutils/lib.a(time.o)
 .rodata.long_format
                0x000b127b      0x2cb miscutils/lib.a(time.o)
 .rodata.default_format
                0x000b1546       0x17 miscutils/lib.a(time.o)
 *fill*         0x000b155d        0x3 00
 .rodata.str1.4
                0x000b1560       0xe0 miscutils/lib.a(time.o)
                                 0xf4 (size before relaxing)
 .rodata.str1.4
                0x000b1640        0x6 miscutils/lib.a(ttysize.o)
                                  0x8 (size before relaxing)
 *fill*         0x000b1646        0x2 00
 .rodata.str1.4
                0x000b1648        0x4 miscutils/lib.a(watchdog.o)
                                 0x10 (size before relaxing)
 .rodata.str1.4
                0x000b164c      0x9a0 modutils/lib.a(insmod.o)
                                0x9b8 (size before relaxing)
 .rodata.gpl_licenses.0
                0x000b1fec       0x14 modutils/lib.a(insmod.o)
 .rodata.tainted_file.1
                0x000b2000       0x19 modutils/lib.a(insmod.o)
 *fill*         0x000b2019        0x3 00
 .rodata.specials.3
                0x000b201c       0x10 modutils/lib.a(insmod.o)
 .rodata.symprefix.4
                0x000b202c        0xa modutils/lib.a(insmod.o)
 *fill*         0x000b2036        0x2 00
 .rodata.str1.4
                0x000b2038       0x9b modutils/lib.a(lsmod.o)
                                 0xb4 (size before relaxing)
 *fill*         0x000b20d3        0x1 00
 .rodata.str1.4
                0x000b20d4      0x251 modutils/lib.a(modprobe.o)
                                0x294 (size before relaxing)
 *fill*         0x000b2325        0x3 00
 .rodata.rm_a_dummy.0
                0x000b2328       0x14 modutils/lib.a(modprobe.o)
 .rodata.str1.4
                0x000b233c        0x4 modutils/lib.a(rmmod.o)
                                 0x10 (size before relaxing)
 .rodata.str1.4
                0x000b2340      0x262 networking/lib.a(arp.o)
                                0x274 (size before relaxing)
 .rodata.options
                0x000b25a2       0x2e networking/lib.a(arp.o)
 .rodata.str1.4
                0x000b25d0      0x23e networking/lib.a(arping.o)
                                0x260 (size before relaxing)
 *fill*         0x000b280e        0x2 00
 .rodata.str1.4
                0x000b2810       0xf5 networking/lib.a(dnsd.o)
                                0x108 (size before relaxing)
 *fill*         0x000b2905        0x3 00
 .rodata.str1.4
                0x000b2908       0x85 networking/lib.a(ether-wake.o)
                                 0x94 (size before relaxing)
 .rodata.ftpgetput_longopts
                0x000b298d       0x33 networking/lib.a(ftpgetput.o)
 .rodata.str1.4
                0x000b29c0       0xfb networking/lib.a(ftpgetput.o)
                                0x118 (size before relaxing)
 *fill*         0x000b2abb        0x1 00
 .rodata.str1.4
                0x000b2abc       0x13 networking/lib.a(hostname.o)
                                 0x20 (size before relaxing)
 .rodata.default_path_httpd_conf
                0x000b2acf        0x5 networking/lib.a(httpd.o)
 .rodata.http_response_type
                0x000b2ad4       0x12 networking/lib.a(httpd.o)
 .rodata.httpd_conf
                0x000b2ae6        0xb networking/lib.a(httpd.o)
 .rodata.HTTP_200
                0x000b2af1       0x12 networking/lib.a(httpd.o)
 *fill*         0x000b2b03        0x1 00
 .rodata.str1.4
                0x000b2b04      0x59c networking/lib.a(httpd.o)
                                0x5e4 (size before relaxing)
 .rodata.http_response
                0x000b30a0       0x48 networking/lib.a(httpd.o)
 .rodata.suffixTable.2
                0x000b30e8       0x64 networking/lib.a(httpd.o)
 .rodata.RFC1123FMT.1
                0x000b314c       0x1a networking/lib.a(httpd.o)
 .rodata.request_GET.0
                0x000b3166        0x4 networking/lib.a(httpd.o)
 *fill*         0x000b316a        0x2 00
 .rodata.str1.4
                0x000b316c      0x19d networking/lib.a(ifconfig.o)
                                0x1d8 (size before relaxing)
 *fill*         0x000b3309        0x3 00
 .rodata.Arg1Opt
                0x000b330c       0xc0 networking/lib.a(ifconfig.o)
 .rodata.OptArray
                0x000b33cc       0xc0 networking/lib.a(ifconfig.o)
 .rodata.str1.4
                0x000b348c      0x71d networking/lib.a(ifupdown.o)
                                0x7a0 (size before relaxing)
 *fill*         0x000b3ba9        0x3 00
 .rodata.addr_inet6
                0x000b3bac        0xc networking/lib.a(ifupdown.o)
 .rodata.methods6
                0x000b3bb8       0x24 networking/lib.a(ifupdown.o)
 .rodata.addr_inet
                0x000b3bdc        0xc networking/lib.a(ifupdown.o)
 .rodata.methods
                0x000b3be8       0x54 networking/lib.a(ifupdown.o)
 .rodata        0x000b3c3c       0x28 networking/lib.a(ifupdown.o)
 .rodata.addr_fams.0
                0x000b3c64        0xc networking/lib.a(ifupdown.o)
 .rodata.str1.4
                0x000b3c70      0x2a4 networking/lib.a(inetd.o)
                                0x2ec (size before relaxing)
 .rodata.builtins
                0x000b3f14       0xb0 networking/lib.a(inetd.o)
 .rodata.str1.4
                0x000b3fc4      0x49f networking/lib.a(interface.o)
                                0x4fc (size before relaxing)
 *fill*         0x000b4463        0x1 00
 .rodata.ss_fmt
                0x000b4464        0xc networking/lib.a(interface.o)
 .rodata.if_port_text
                0x000b4470       0x20 networking/lib.a(interface.o)
 .rodata.aftypes
                0x000b4490       0x10 networking/lib.a(interface.o)
 .rodata.unspec_aftype
                0x000b44a0       0x2c networking/lib.a(interface.o)
 .rodata.inet6_aftype
                0x000b44cc       0x2c networking/lib.a(interface.o)
 .rodata.inet_aftype
                0x000b44f8       0x2c networking/lib.a(interface.o)
 .rodata.TRext  0x000b4524        0xf networking/lib.a(interface.o)
 *fill*         0x000b4533        0x1 00
 .rodata.hwtypes
                0x000b4534       0x18 networking/lib.a(interface.o)
 .rodata.sit_hwtype
                0x000b454c       0x20 networking/lib.a(interface.o)
 .rodata.unspec_hwtype
                0x000b456c       0x20 networking/lib.a(interface.o)
 .rodata.ppp_hwtype
                0x000b458c       0x20 networking/lib.a(interface.o)
 .rodata.ether_hwtype
                0x000b45ac       0x20 networking/lib.a(interface.o)
 .rodata.loop_hwtype
                0x000b45cc       0x20 networking/lib.a(interface.o)
 .rodata.ife_print_flags_strs.1
                0x000b45ec       0x6a networking/lib.a(interface.o)
 .rodata.ife_print_flags_mask.2
                0x000b4656       0x1a networking/lib.a(interface.o)
 .rodata.keywords.0
                0x000b4670       0x25 networking/lib.a(ip.o)
 .rodata.ipcalc_longopts
                0x000b4695       0x3e networking/lib.a(ipcalc.o)
 *fill*         0x000b46d3        0x1 00
 .rodata.str1.4
                0x000b46d4       0xa9 networking/lib.a(ipcalc.o)
                                 0xac (size before relaxing)
 *fill*         0x000b477d        0x3 00
 .rodata.str1.4
                0x000b4780       0x2b networking/lib.a(isrv_identd.o)
                                 0x3c (size before relaxing)
 *fill*         0x000b47ab        0x1 00
 .rodata.str1.4
                0x000b47ac       0x7a networking/lib.a(nameif.o)
                                 0x84 (size before relaxing)
 *fill*         0x000b4826        0x2 00
 .rodata.str1.4
                0x000b4828       0x18 networking/lib.a(nc.o)
                                 0x30 (size before relaxing)
 .rodata.str1.4
                0x000b4840      0x498 networking/lib.a(netstat.o)
                                0x4d4 (size before relaxing)
 .rodata.tcp_state
                0x000b4cd8       0x30 networking/lib.a(netstat.o)
 .rodata.str1.4
                0x000b4d08       0x44 networking/lib.a(nslookup.o)
                                 0x48 (size before relaxing)
 .rodata.str1.4
                0x000b4d4c      0x2ef networking/lib.a(ping.o)
                                0x2fc (size before relaxing)
 *fill*         0x000b503b        0x1 00
 .rodata.str1.4
                0x000b503c       0x90 networking/lib.a(pscan.o)
                                 0xa8 (size before relaxing)
 .rodata.tbl_verb
                0x000b50cc       0x15 networking/lib.a(route.o)
 *fill*         0x000b50e1        0x3 00
 .rodata.flagvals
                0x000b50e4       0x20 networking/lib.a(route.o)
 .rodata.flagchars
                0x000b5104        0x9 networking/lib.a(route.o)
 *fill*         0x000b510d        0x3 00
 .rodata.flags_ipvx
                0x000b5110       0x10 networking/lib.a(route.o)
 .rodata.tbl_ipvx
                0x000b5120       0x68 networking/lib.a(route.o)
 .rodata.tbl_hash_net_host
                0x000b5188        0xf networking/lib.a(route.o)
 *fill*         0x000b5197        0x1 00
 .rodata.str1.4
                0x000b5198      0x27a networking/lib.a(route.o)
                                0x2a0 (size before relaxing)
 *fill*         0x000b5412        0x2 00
 .rodata.str1.4
                0x000b5414       0x69 networking/lib.a(slattach.o)
                                 0x74 (size before relaxing)
 .rodata.proto_names.0
                0x000b547d       0x22 networking/lib.a(slattach.o)
 .rodata.escapecharis
                0x000b549f       0x17 networking/lib.a(telnet.o)
 *fill*         0x000b54b6        0x2 00
 .rodata.str1.4
                0x000b54b8       0xf0 networking/lib.a(telnet.o)
                                0x110 (size before relaxing)
 .rodata.str1.4
                0x000b55a8       0x67 networking/lib.a(telnetd.o)
                                 0x88 (size before relaxing)
 *fill*         0x000b560f        0x1 00
 .rodata.str1.4
                0x000b5610      0x169 networking/lib.a(tftp.o)
                                0x18c (size before relaxing)
 *fill*         0x000b5779        0x3 00
 .rodata.errcode_str.0
                0x000b577c       0x24 networking/lib.a(tftp.o)
 .rodata.error_8.1
                0x000b57a0        0x4 networking/lib.a(tftp.o)
 .rodata.str1.4
                0x000b57a4      0x28f networking/lib.a(traceroute.o)
                                0x2d0 (size before relaxing)
 .rodata.name_types
                0x000b5a33       0x4c networking/lib.a(vconfig.o)
 .rodata.cmds   0x000b5a7f       0x50 networking/lib.a(vconfig.o)
 .rodata.conf_file_name
                0x000b5acf       0x16 networking/lib.a(vconfig.o)
 *fill*         0x000b5ae5        0x3 00
 .rodata.str1.4
                0x000b5ae8       0x27 networking/lib.a(vconfig.o)
                                 0x28 (size before relaxing)
 *fill*         0x000b5b0f        0x1 00
 .rodata.str1.4
                0x000b5b10      0x2ce networking/lib.a(wget.o)
                                0x350 (size before relaxing)
 .rodata.keywords.0
                0x000b5dde       0x33 networking/lib.a(wget.o)
 .rodata.wget_longopts.1
                0x000b5e11       0x6e networking/lib.a(wget.o)
 *fill*         0x000b5e7f        0x1 00
 .rodata.str1.4
                0x000b5e80       0xb7 networking/lib.a(zcip.o)
                                 0xdc (size before relaxing)
 .rodata.ip_common_commands.0
                0x000b5f37       0x2b networking/libiproute/lib.a(ip_parse_common_args.o)
 *fill*         0x000b5f62        0x2 00
 .rodata.str1.4
                0x000b5f64       0x10 networking/libiproute/lib.a(ip_parse_common_args.o)
                                 0x14 (size before relaxing)
 .rodata.str1.4
                0x000b5f74      0x2b3 networking/libiproute/lib.a(ipaddress.o)
                                0x2ec (size before relaxing)
 .rodata.option.2
                0x000b6227       0x17 networking/libiproute/lib.a(ipaddress.o)
 .rodata.option.1
                0x000b623e       0x39 networking/libiproute/lib.a(ipaddress.o)
 .rodata.commands.0
                0x000b6277       0x20 networking/libiproute/lib.a(ipaddress.o)
 *fill*         0x000b6297        0x1 00
 .rodata.str1.4
                0x000b6298       0x80 networking/libiproute/lib.a(iplink.o)
                                 0xf8 (size before relaxing)
 .rodata.keywords.0
                0x000b6318       0x13 networking/libiproute/lib.a(iplink.o)
 .rodata.keywords.1
                0x000b632b       0x30 networking/libiproute/lib.a(iplink.o)
 *fill*         0x000b635b        0x1 00
 .rodata.str1.4
                0x000b635c      0x194 networking/libiproute/lib.a(iproute.o)
                                0x214 (size before relaxing)
 .rodata.keywords.3
                0x000b64f0       0x43 networking/libiproute/lib.a(iproute.o)
 .rodata.fn.4   0x000b6533       0x1f networking/libiproute/lib.a(iproute.o)
 .rodata.ip_route_commands.0
                0x000b6552       0x47 networking/libiproute/lib.a(iproute.o)
 .rodata.options.1
                0x000b6599       0x26 networking/libiproute/lib.a(iproute.o)
 .rodata.keywords.5
                0x000b65bf       0x2c networking/libiproute/lib.a(iproute.o)
 *fill*         0x000b65eb        0x1 00
 .rodata.str1.4
                0x000b65ec       0xb9 networking/libiproute/lib.a(iprule.o)
                                 0xe0 (size before relaxing)
 .rodata.ip_rule_commands.0
                0x000b66a5       0x16 networking/libiproute/lib.a(iprule.o)
 .rodata.keywords.1
                0x000b66bb       0x5f networking/libiproute/lib.a(iprule.o)
 *fill*         0x000b671a        0x2 00
 .rodata.str1.4
                0x000b671c      0x368 networking/libiproute/lib.a(iptunnel.o)
                                0x3c0 (size before relaxing)
 .rodata.keywords.1
                0x000b6a84       0x9b networking/libiproute/lib.a(iptunnel.o)
 .rodata.keywords.0
                0x000b6b1f       0x21 networking/libiproute/lib.a(iptunnel.o)
 .rodata.str1.4
                0x000b6b40      0x14c networking/libiproute/lib.a(libnetlink.o)
 .rodata.str1.4
                0x000b6c8c       0x1f networking/libiproute/lib.a(ll_addr.o)
                                 0x24 (size before relaxing)
 *fill*         0x000b6cab        0x1 00
 .rodata.str1.4
                0x000b6cac       0x20 networking/libiproute/lib.a(ll_map.o)
                                 0x24 (size before relaxing)
 .rodata.str1.4
                0x000b6ccc      0x1ad networking/libiproute/lib.a(ll_types.o)
                                0x1e8 (size before relaxing)
 *fill*         0x000b6e79        0x3 00
 .rodata.arphrd_names.0
                0x000b6e7c      0x1f0 networking/libiproute/lib.a(ll_types.o)
 .rodata.str1.4
                0x000b706c      0x128 networking/libiproute/lib.a(rt_names.o)
                                0x174 (size before relaxing)
 .rodata.init_tab.10
                0x000b7194       0x34 networking/libiproute/lib.a(rt_names.o)
 .rodata.str1.4
                0x000b71c8       0x41 networking/libiproute/lib.a(rtm_map.o)
                                 0x78 (size before relaxing)
 .rodata.keywords.0
                0x000b7209       0x61 networking/libiproute/lib.a(rtm_map.o)
 *fill*         0x000b726a        0x2 00
 .rodata.str1.4
                0x000b726c      0x12c networking/libiproute/lib.a(utils.o)
                                0x134 (size before relaxing)
 .rodata.str1.4
                0x000b7398      0x209 networking/udhcp/lib.a(dhcpc.o)
                                0x22c (size before relaxing)
 .rodata.udhcpc_longopts.0
                0x000b75a1       0xc8 networking/udhcp/lib.a(dhcpc.o)
 *fill*         0x000b7669        0x3 00
 .rodata.str1.4
                0x000b766c       0xe7 networking/udhcp/lib.a(dhcpd.o)
                                0x104 (size before relaxing)
 *fill*         0x000b7753        0x1 00
 .rodata.str1.4
                0x000b7754       0x28 networking/udhcp/lib.a(dhcprelay.o)
                                 0x2c (size before relaxing)
 .rodata.dumpleases_longopts.0
                0x000b777c       0x1f networking/udhcp/lib.a(dumpleases.o)
 *fill*         0x000b779b        0x1 00
 .rodata.str1.4
                0x000b779c       0x90 networking/udhcp/lib.a(dumpleases.o)
                                 0xa0 (size before relaxing)
 .rodata.str1.4
                0x000b782c      0x145 networking/udhcp/lib.a(files.o)
                                0x1b0 (size before relaxing)
 *fill*         0x000b7971        0x3 00
 .rodata.keywords
                0x000b7974      0x130 networking/udhcp/lib.a(files.o)
 .rodata.str1.4
                0x000b7aa4       0x33 networking/udhcp/lib.a(leases.o)
                                 0x34 (size before relaxing)
 .rodata.udhcp_option_lengths
                0x000b7ad7        0xb networking/udhcp/lib.a(options.o)
                0x000b7ad7                udhcp_option_lengths
 *fill*         0x000b7ae2        0x2 00
 .rodata.dhcp_options
                0x000b7ae4      0x220 networking/udhcp/lib.a(options.o)
                0x000b7ae4                dhcp_options
 .rodata.str1.4
                0x000b7d04       0x6d networking/udhcp/lib.a(options.o)
                                 0x70 (size before relaxing)
 *fill*         0x000b7d71        0x3 00
 .rodata.str1.4
                0x000b7d74       0x2c networking/udhcp/lib.a(packet.o)
                                 0x44 (size before relaxing)
 .rodata.max_option_length
                0x000b7da0        0xb networking/udhcp/lib.a(script.o)
 *fill*         0x000b7dab        0x1 00
 .rodata.str1.4
                0x000b7dac       0x78 networking/udhcp/lib.a(script.o)
                                 0xa8 (size before relaxing)
 .rodata.str1.4
                0x000b7e24       0x7a networking/udhcp/lib.a(serverpacket.o)
                                 0x7c (size before relaxing)
 *fill*         0x000b7e9e        0x2 00
 .rodata.str1.4
                0x000b7ea0       0x13 networking/udhcp/lib.a(signalpipe.o)
                                 0x14 (size before relaxing)
 *fill*         0x000b7eb3        0x1 00
 .rodata.str1.4
                0x000b7eb4       0x34 networking/udhcp/lib.a(socket.o)
                                 0x64 (size before relaxing)
 .rodata.str1.4
                0x000b7ee8       0x3c networking/udhcp/lib.a(arpping.o)
 .rodata.str1.4
                0x000b7f24       0xb6 networking/udhcp/lib.a(clientpacket.o)
                                 0xb8 (size before relaxing)
 .rodata.MAC_BCAST_ADDR
                0x000b7fda        0x6 networking/udhcp/lib.a(common.o)
                0x000b7fda                MAC_BCAST_ADDR
 .rodata.str1.4
                0x000b7fe0       0x70 procps/lib.a(free.o)
                                 0x94 (size before relaxing)
 .rodata.str1.4
                0x000b8050       0xce procps/lib.a(fuser.o)
                                 0xf0 (size before relaxing)
 *fill*         0x000b811e        0x2 00
 .rodata.str1.4
                0x000b8120       0x9f procps/lib.a(kill.o)
                                 0xa4 (size before relaxing)
 *fill*         0x000b81bf        0x1 00
 .rodata.init_functions
                0x000b81c0       0x30 procps/lib.a(nmeter.o)
 .rodata.options
                0x000b81f0        0xd procps/lib.a(nmeter.o)
 *fill*         0x000b81fd        0x3 00
 .rodata.str1.4
                0x000b8200       0xc2 procps/lib.a(nmeter.o)
                                 0xf4 (size before relaxing)
 *fill*         0x000b82c2        0x2 00
 .rodata.proc_name
                0x000b82c4       0x18 procps/lib.a(nmeter.o)
 .rodata.str1.4
                0x000b82dc        0xe procps/lib.a(pidof.o)
                                 0x18 (size before relaxing)
 *fill*         0x000b82ea        0x2 00
 .rodata.str1.4
                0x000b82ec       0x51 procps/lib.a(ps.o)
                                 0x58 (size before relaxing)
 .rodata.Xetpriority_msg.0
                0x000b833d        0xd procps/lib.a(renice.o)
 .rodata.opts.1
                0x000b834a        0x7 procps/lib.a(renice.o)
 *fill*         0x000b8351        0x3 00
 .rodata.str1.4
                0x000b8354       0x22 procps/lib.a(renice.o)
                                 0x24 (size before relaxing)
 .rodata.ERR_UNKNOWN_PARAMETER
                0x000b8376       0x1f procps/lib.a(sysctl.o)
 .rodata.PROC_PATH
                0x000b8395        0xb procps/lib.a(sysctl.o)
 .rodata.DEFAULT_PRELOAD
                0x000b83a0       0x11 procps/lib.a(sysctl.o)
 .rodata.WARN_BAD_LINE
                0x000b83b1       0x30 procps/lib.a(sysctl.o)
 .rodata.ERR_PRELOAD_FILE
                0x000b83e1       0x26 procps/lib.a(sysctl.o)
 .rodata.ERR_UNKNOWN_WRITING
                0x000b8407       0x2a procps/lib.a(sysctl.o)
 .rodata.ERR_PERMISSION_DENIED
                0x000b8431       0x26 procps/lib.a(sysctl.o)
 .rodata.ERR_INVALID_KEY
                0x000b8457       0x1f procps/lib.a(sysctl.o)
 .rodata.ERR_MALFORMED_SETTING
                0x000b8476       0x1f procps/lib.a(sysctl.o)
 .rodata.ERR_NO_EQUALS
                0x000b8495       0x2c procps/lib.a(sysctl.o)
 .rodata.ERR_UNKNOWN_READING
                0x000b84c1       0x2a procps/lib.a(sysctl.o)
 *fill*         0x000b84eb        0x1 00
 .rodata.str1.4
                0x000b84ec        0x7 procps/lib.a(sysctl.o)
                                 0x24 (size before relaxing)
 *fill*         0x000b84f3        0x1 00
 .rodata.str1.4
                0x000b84f4      0x1ff procps/lib.a(top.o)
                                0x244 (size before relaxing)
 *fill*         0x000b86f3        0x1 00
 .rodata.str1.4
                0x000b86f4       0x67 procps/lib.a(uptime.o)
                                 0x70 (size before relaxing)
 *fill*         0x000b875b        0x1 00
 .rodata.str1.4
                0x000b875c       0x18 procps/lib.a(watch.o)
                                 0x28 (size before relaxing)
 .rodata.str1.4
                0x000b8774       0xb0 runit/lib.a(chpst.o)
                                 0xf4 (size before relaxing)
 .rodata.str1.4
                0x000b8824      0x315 runit/lib.a(runsv.o)
                                0x348 (size before relaxing)
 *fill*         0x000b8b39        0x3 00
 .rodata.str1.4
                0x000b8b3c      0x14d runit/lib.a(runsvdir.o)
                                0x178 (size before relaxing)
 *fill*         0x000b8c89        0x3 00
 .rodata.str1.4
                0x000b8c8c      0x2e5 runit/lib.a(sv.o)
                                0x3cc (size before relaxing)
 *fill*         0x000b8f71        0x3 00
 .rodata.str1.4
                0x000b8f74      0x54a runit/lib.a(svlogd.o)
                                0x594 (size before relaxing)
 *fill*         0x000b94be        0x2 00
 .rodata.km_suffixes.0
                0x000b94c0       0x18 runit/lib.a(svlogd.o)
 .rodata.mh_suffixes.1
                0x000b94d8       0x18 runit/lib.a(svlogd.o)
 .rodata.str1.4
                0x000b94f0      0x9c9 shell/lib.a(ash.o)
                                0xac4 (size before relaxing)
 *fill*         0x000b9eb9        0x3 00
 .rodata        0x000b9ebc       0x90 shell/lib.a(ash.o)
 .rodata.defifsvar
                0x000b9f4c        0x8 shell/lib.a(ash.o)
 .rodata.optletters_optnames
                0x000b9f54       0x38 shell/lib.a(ash.o)
 .rodata.tokname_array
                0x000b9f8c       0x74 shell/lib.a(ash.o)
 .rodata.S_I_T  0x000ba000       0x2c shell/lib.a(ash.o)
 .rodata.xxreadtoken_tokens
                0x000ba02c        0xa shell/lib.a(ash.o)
 .rodata.xxreadtoken_chars
                0x000ba036        0x7 shell/lib.a(ash.o)
 .rodata.dolatstr
                0x000ba03d        0x5 shell/lib.a(ash.o)
 *fill*         0x000ba042        0x2 00
 .rodata.builtintab
                0x000ba044      0x130 shell/lib.a(ash.o)
 .rodata.illnum
                0x000ba174       0x13 shell/lib.a(ash.o)
 *fill*         0x000ba187        0x1 00
 .rodata.limits
                0x000ba188       0xc0 shell/lib.a(ash.o)
 .rodata.timescmd_str
                0x000ba248        0x9 shell/lib.a(ash.o)
 .rodata.snlfmt
                0x000ba251        0x4 shell/lib.a(ash.o)
 .rodata.op_tokens
                0x000ba255       0x8d shell/lib.a(ash.o)
 .rodata.homestr
                0x000ba2e2        0x5 shell/lib.a(ash.o)
 *fill*         0x000ba2e7        0x1 00
 .rodata.nodesize
                0x000ba2e8       0x34 shell/lib.a(ash.o)
 .rodata.spec_symbls.2
                0x000ba31c       0x1b shell/lib.a(ash.o)
 .rodata.syntax_index_table.3
                0x000ba337       0x1a shell/lib.a(ash.o)
 .rodata.vstype.10
                0x000ba351       0x40 shell/lib.a(ash.o)
 .rodata.qchars.8
                0x000ba391        0x3 shell/lib.a(ash.o)
 .rodata.types.1
                0x000ba394        0x6 shell/lib.a(ash.o)
 .rodata.permuser.5
                0x000ba39a        0x3 shell/lib.a(ash.o)
 .rodata.permmode.6
                0x000ba39d        0x3 shell/lib.a(ash.o)
 .rodata.permmask.7
                0x000ba3a0       0x12 shell/lib.a(ash.o)
 .rodata.spclchars.9
                0x000ba3b2        0xa shell/lib.a(ash.o)
 .rodata.metachars.11
                0x000ba3bc        0x4 shell/lib.a(ash.o)
 .rodata.bltin.12
                0x000ba3c0        0x8 shell/lib.a(ash.o)
 .rodata.str1.4
                0x000ba3c8       0x5a sysklogd/lib.a(klogd.o)
                                 0x68 (size before relaxing)
 *fill*         0x000ba422        0x2 00
 .rodata.str1.4
                0x000ba424       0x31 sysklogd/lib.a(logger.o)
                                 0x3c (size before relaxing)
 *fill*         0x000ba455        0x3 00
 .rodata.str1.4
                0x000ba458       0x89 sysklogd/lib.a(logread.o)
                                 0x90 (size before relaxing)
 *fill*         0x000ba4e1        0x3 00
 .rodata.str1.4
                0x000ba4e4      0x1e2 sysklogd/lib.a(syslogd.o)
                                0x240 (size before relaxing)
 *fill*         0x000ba6c6        0x2 00
 .rodata.init_data
                0x000ba6c8       0x50 sysklogd/lib.a(syslogd.o)
 .rodata.str1.4
                0x000ba718       0x10 util-linux/lib.a(dmesg.o)
 .rodata.g_cmdoptions
                0x000ba728      0x1b0 util-linux/lib.a(fbset.o)
 .rodata.str1.4
                0x000ba8d8      0x18a util-linux/lib.a(fbset.o)
                                0x1a4 (size before relaxing)
 *fill*         0x000baa62        0x2 00
 .rodata.str1.4
                0x000baa64      0x102 util-linux/lib.a(fdformat.o)
                                0x120 (size before relaxing)
 .rodata.unable_to_read
                0x000bab66       0x14 util-linux/lib.a(fdisk.o)
 .rodata.unable_to_open
                0x000bab7a        0xf util-linux/lib.a(fdisk.o)
 .rodata.unable_to_seek
                0x000bab89       0x12 util-linux/lib.a(fdisk.o)
 *fill*         0x000bab9b        0x1 00
 .rodata        0x000bab9c        0x8 util-linux/lib.a(fdisk.o)
 .rodata.str1.4
                0x000baba4     0x15b5 util-linux/lib.a(fdisk.o)
                               0x15e0 (size before relaxing)
 *fill*         0x000bc159        0x3 00
 .rodata.i386_sys_types
                0x000bc15c       0xc4 util-linux/lib.a(fdisk.o)
 .rodata.msg_part_already_defined
                0x000bc220       0x3d util-linux/lib.a(fdisk.o)
 .rodata.msg_building_new_label
                0x000bc25d       0x8f util-linux/lib.a(fdisk.o)
 .rodata.unable_to_write
                0x000bc2ec       0x13 util-linux/lib.a(fdisk.o)
 *fill*         0x000bc2ff        0x1 00
 .rodata.str1.4
                0x000bc300      0x7d5 util-linux/lib.a(fsck_minix.o)
                                0x81c (size before relaxing)
 .rodata.getopt_longopts
                0x000bcad5       0x5f util-linux/lib.a(getopt.o)
 .rodata.str1.4
                0x000bcb34       0xb7 util-linux/lib.a(getopt.o)
                                 0xc4 (size before relaxing)
 *fill*         0x000bcbeb        0x1 00
 .rodata.suffixes
                0x000bcbec       0x20 util-linux/lib.a(hexdump.o)
 .rodata.str1.4
                0x000bcc0c      0x10d util-linux/lib.a(hexdump.o)
                                0x114 (size before relaxing)
 *fill*         0x000bcd19        0x3 00
 .rodata.add_strings
                0x000bcd1c       0x14 util-linux/lib.a(hexdump.o)
 .rodata.add_first
                0x000bcd30        0xc util-linux/lib.a(hexdump.o)
 .rodata.hexdump_opts
                0x000bcd3c       0x10 util-linux/lib.a(hexdump.o)
 .rodata.str1.4
                0x000bcd4c       0xba util-linux/lib.a(hwclock.o)
                                 0xc8 (size before relaxing)
 .rodata.hwclock_longopts.0
                0x000bce06       0x35 util-linux/lib.a(hwclock.o)
 *fill*         0x000bce3b        0x1 00
 .rodata.str1.4
                0x000bce3c       0xaf util-linux/lib.a(ipcrm.o)
                                 0xb4 (size before relaxing)
 *fill*         0x000bceeb        0x1 00
 .rodata.str1.4
                0x000bceec      0x95f util-linux/lib.a(ipcs.o)
                                0x9bc (size before relaxing)
 *fill*         0x000bd84b        0x1 00
 .rodata.str1.4
                0x000bd84c        0xf util-linux/lib.a(losetup.o)
                                 0x18 (size before relaxing)
 *fill*         0x000bd85b        0x1 00
 .rodata.str1.4
                0x000bd85c       0x95 util-linux/lib.a(mdev.o)
                                 0xd8 (size before relaxing)
 *fill*         0x000bd8f1        0x3 00
 .rodata.str1.4
                0x000bd8f4      0x238 util-linux/lib.a(mkfs_minix.o)
                                0x294 (size before relaxing)
 .rodata.str1.4
                0x000bdb2c       0x3f util-linux/lib.a(mkswap.o)
                                 0x40 (size before relaxing)
 *fill*         0x000bdb6b        0x1 00
 .rodata.str1.4
                0x000bdb6c       0x65 util-linux/lib.a(more.o)
                                 0x7c (size before relaxing)
 .rodata.must_be_root
                0x000bdbd1       0x11 util-linux/lib.a(mount.o)
 *fill*         0x000bdbe2        0x2 00
 .rodata.str1.4
                0x000bdbe4      0x35f util-linux/lib.a(mount.o)
                                0x3f0 (size before relaxing)
 *fill*         0x000bdf43        0x1 00
 .rodata.nfs_errtbl
                0x000bdf44       0xa0 util-linux/lib.a(mount.o)
 .rodata.options.0
                0x000bdfe4       0xa1 util-linux/lib.a(mount.o)
 .rodata.options.1
                0x000be085       0x30 util-linux/lib.a(mount.o)
 .rodata.filesystems.4
                0x000be0b5       0x24 util-linux/lib.a(mount.o)
 *fill*         0x000be0d9        0x3 00
 .rodata.str1.4
                0x000be0dc       0x87 util-linux/lib.a(rdate.o)
                                 0x9c (size before relaxing)
 .rodata.defaultmap
                0x000be163       0x11 util-linux/lib.a(readprofile.o)
 .rodata.defaultpro
                0x000be174        0xe util-linux/lib.a(readprofile.o)
 *fill*         0x000be182        0x2 00
 .rodata.str1.4
                0x000be184      0x191 util-linux/lib.a(readprofile.o)
                                0x1a8 (size before relaxing)
 *fill*         0x000be315        0x3 00
 .rodata.str1.4
                0x000be318       0x48 util-linux/lib.a(switch_root.o)
                                 0x5c (size before relaxing)
 .rodata.str1.4
                0x000be360       0x85 util-linux/lib.a(umount.o)
                                 0x8c (size before relaxing)
 *fill*         0x000be3e5        0x3 00
 .rodata.str1.4
                0x000be3e8       0x12 libbb/lib.a(change_identity.o)
                                 0x18 (size before relaxing)
 *fill*         0x000be3fa        0x2 00
 .rodata.str1.4
                0x000be3fc        0xf libbb/lib.a(correct_password.o)
                                 0x10 (size before relaxing)
 *fill*         0x000be40b        0x1 00
 .rodata.str1.4
                0x000be40c        0xa libbb/lib.a(create_icmp6_socket.o)
                                  0xc (size before relaxing)
 *fill*         0x000be416        0x2 00
 .rodata.str1.4
                0x000be418        0x5 libbb/lib.a(create_icmp_socket.o)
                                  0x8 (size before relaxing)
 *fill*         0x000be41d        0x3 00
 .rodata.str1.4
                0x000be420       0x27 libbb/lib.a(inet_common.o)
                                 0x2c (size before relaxing)
 *fill*         0x000be447        0x1 00
 .rodata.str1.4
                0x000be448       0x1e libbb/lib.a(kernel_version.o)
                                 0x24 (size before relaxing)
 *fill*         0x000be466        0x2 00
 .rodata.str1.4
                0x000be468       0x49 libbb/lib.a(lineedit.o)
                                 0x5c (size before relaxing)
 .rodata.fmtstr_t
                0x000be4b1        0x9 libbb/lib.a(login.o)
 .rodata.fmtstr_d
                0x000be4ba        0xd libbb/lib.a(login.o)
 *fill*         0x000be4c7        0x1 00
 .rodata.str1.4
                0x000be4c8        0x9 libbb/lib.a(login.o)
                                 0x14 (size before relaxing)
 *fill*         0x000be4d1        0x3 00
 .rodata.str1.4
                0x000be4d4       0x14 libbb/lib.a(loop.o)
 .rodata.str1.4
                0x000be4e8       0x9a libbb/lib.a(obscure.o)
                                 0x9c (size before relaxing)
 *fill*         0x000be582        0x2 00
 .rodata.str1.4
                0x000be584       0x34 libbb/lib.a(setup_environment.o)
                                 0x60 (size before relaxing)
 .rodata.str1.4
                0x000be5b8        0x6 libbb/lib.a(trim.o)
                                  0x8 (size before relaxing)
 *fill*         0x000be5be        0x2 00
 .rodata.str1.4
                0x000be5c0       0x46 libbb/lib.a(update_passwd.o)
                                 0x70 (size before relaxing)
 .rodata        0x000be606      0x100 /home/zion/gcc_jz2440/arm-linux-gcc-3.4.5-glibc-2.3.6/bin/../lib/gcc/arm-linux/3.4.5/libgcc.a(_clz.oS)
                0x000be606                __clz_tab

.rodata1
 *(.rodata1)

.eh_frame_hdr
 *(.eh_frame_hdr)
                0x000be706                . = (ALIGN (0x8000) - ((0x8000 - .) & 0x7fff))
                0x000c7000                . = (0x8000 DATA_SEGMENT_ALIGN 0x1000)
                0x000c7000                . = ALIGN (0x4)
                0x000c7000                PROVIDE (__preinit_array_start, .)

.preinit_array
 *(.preinit_array)
                0x000c7000                PROVIDE (__preinit_array_end, .)
                0x000c7000                PROVIDE (__init_array_start, .)

.init_array
 *(.init_array)
                0x000c7000                PROVIDE (__init_array_end, .)
                0x000c7000                PROVIDE (__fini_array_start, .)

.fini_array
 *(.fini_array)
                0x000c7000                PROVIDE (__fini_array_end, .)

.data           0x000c7000      0x4b0
                0x000c7000                __data_start = .
 *(.data .data.* .gnu.linkonce.d.*)
 .data          0x000c7000        0x4 /home/zion/gcc_jz2440/arm-linux-gcc-3.4.5-glibc-2.3.6/bin/../lib/gcc/arm-linux/3.4.5/../../../../arm-linux/lib/crt1.o
                0x000c7000                data_start
 .data          0x000c7004        0x8 /home/zion/gcc_jz2440/arm-linux-gcc-3.4.5-glibc-2.3.6/bin/../lib/gcc/arm-linux/3.4.5/crtbegin.o
                0x000c7004                __dso_handle
 .data          0x000c700c        0x4 applets/built-in.o
                0x000c700c                bb_errno
 .data.saved_hardlinks.0
                0x000c7010        0x4 archival/libunarchive/lib.a(get_header_cpio.o)
 .data.pending_hardlinks.1
                0x000c7014        0x4 archival/libunarchive/lib.a(get_header_cpio.o)
 .data.ugid     0x000c7018        0x8 coreutils/lib.a(chown.o)
 .data.delim    0x000c7020        0x1 coreutils/lib.a(cut.o)
 *fill*         0x000c7021        0x3 00
 .data.count_hardlinks
                0x000c7024        0x4 coreutils/lib.a(du.o)
 .data.max_print_depth
                0x000c7028        0x4 coreutils/lib.a(du.o)
 .data.disp_hr  0x000c702c        0x4 coreutils/lib.a(du.o)
 .data.status   0x000c7030        0x4 coreutils/lib.a(ls.o)
 .data.tabstops
                0x000c7034        0x4 coreutils/lib.a(ls.o)
 .data.terminal_width
                0x000c7038        0x4 coreutils/lib.a(ls.o)
 .data.max_col  0x000c703c        0x4 coreutils/lib.a(stty.o)
                0x000c703c                max_col
 .data.device_name
                0x000c7040        0x4 coreutils/lib.a(stty.o)
 .data.user_id  0x000c7044        0x4 debianutils/lib.a(start_stop_daemon.o)
 .data.signal_nr
                0x000c7048        0x4 debianutils/lib.a(start_stop_daemon.o)
 .data.readonly_mode
                0x000c704c        0x4 editors/lib.a(vi.o)
 .data.last_file_modified
                0x000c7050        0x4 editors/lib.a(vi.o)
 .data.recurse_flags
                0x000c7054        0x4 findutils/lib.a(find.o)
 .data.need_print
                0x000c7058        0x1 findutils/lib.a(find.o)
 *fill*         0x000c7059        0x3 00
 .data.init_action_list
                0x000c705c        0x4 init/lib.a(init.o)
 .data.log_console
                0x000c7060        0x4 init/lib.a(init.o)
 .data.got_cont
                0x000c7064        0x4 init/lib.a(init.o)
 .data.log_fd.1
                0x000c7068        0x4 init/lib.a(init.o)
 .data.cmax     0x000c706c        0x4 ipsvd/lib.a(tcpudp.o)
 .data.xfunc_error_retval
                0x000c7070        0x4 libbb/lib.a(default_error_retval.o)
                0x000c7070                xfunc_error_retval
 .data.bb_dump_length
                0x000c7074        0x4 libbb/lib.a(dump.o)
                0x000c7074                bb_dump_length
 .data.bb_dump_vflag
                0x000c7078        0x4 libbb/lib.a(dump.o)
                0x000c7078                bb_dump_vflag
 .data.ateof.2  0x000c707c        0x4 libbb/lib.a(dump.o)
 .data.curp.3   0x000c7080        0x4 libbb/lib.a(dump.o)
 .data          0x000c7084        0x4 libbb/lib.a(messages.o)
                0x000c7084                ptr_to_globals
 .data.mask.0   0x000c7088       0x10 libbb/lib.a(sha1.o)
 .data.bits.1   0x000c7098       0x10 libbb/lib.a(sha1.o)
 .data.msg_eol  0x000c70a8        0x4 libbb/lib.a(verror_msg.o)
                0x000c70a8                msg_eol
 .data.logmode  0x000c70ac        0x4 libbb/lib.a(verror_msg.o)
                0x000c70ac                logmode
 .data.fakehost
                0x000c70b0        0x4 loginutils/lib.a(getty.o)
 .data.baud_index.1
                0x000c70b4        0x4 loginutils/lib.a(getty.o)
 .data.CDir     0x000c70b8        0x4 miscutils/lib.a(crond.o)
 .data.LogLevel
                0x000c70bc        0x4 miscutils/lib.a(crond.o)
 .data.CDir     0x000c70c0        0x4 miscutils/lib.a(crontab.o)
 .data.section_names.5
                0x000c70c4       0x14 modutils/lib.a(insmod.o)
 .data.device   0x000c70d8        0x4 networking/lib.a(arp.o)
 .data.count    0x000c70dc        0x4 networking/lib.a(arping.o)
 .data.ttl      0x000c70e0        0x4 networking/lib.a(dnsd.o)
 .data.fileconf
                0x000c70e4        0x4 networking/lib.a(dnsd.o)
 .data.rlim_ofile_cur
                0x000c70e8        0x8 networking/lib.a(inetd.o)
 .data.config_filename
                0x000c70f0        0x4 networking/lib.a(inetd.o)
 .data.global_queuelen
                0x000c70f4        0x4 networking/lib.a(inetd.o)
 .data.ip_func  0x000c70f8        0x4 networking/lib.a(ip.o)
 .data.net_conn_line
                0x000c70fc        0x4 networking/lib.a(netstat.o)
 .data.flags    0x000c7100        0x4 networking/lib.a(netstat.o)
 .data.has_inode.0
                0x000c7104        0x4 networking/lib.a(netstat.o)
 .data.loginpath
                0x000c7108        0x4 networking/lib.a(telnetd.o)
 .data.issuefile
                0x000c710c        0x4 networking/lib.a(telnetd.o)
 .data.maxpacket
                0x000c7110        0x4 networking/lib.a(traceroute.o)
 .data.waittime
                0x000c7114        0x4 networking/lib.a(traceroute.o)
 .data.port     0x000c7118        0x2 networking/lib.a(traceroute.o)
 *fill*         0x000c711a        0x2 00
 .data.doipcksum
                0x000c711c        0x4 networking/lib.a(traceroute.o)
 .data.nullstr.2
                0x000c7120        0x1 networking/lib.a(wget.o)
 *fill*         0x000c7121        0x3 00
 .data.preferred_family
                0x000c7124        0x4 networking/libiproute/lib.a(ip_parse_common_args.o)
                0x000c7124                preferred_family
 .data.cache.8  0x000c7128        0x4 networking/libiproute/lib.a(rt_names.o)
 .data.cache.6  0x000c712c        0x4 networking/libiproute/lib.a(rt_names.o)
 .data.cache.4  0x000c7130        0x4 networking/libiproute/lib.a(rt_names.o)
 .data.cache.2  0x000c7134        0x4 networking/libiproute/lib.a(rt_names.o)
 .data.cache.0  0x000c7138        0x4 networking/libiproute/lib.a(rt_names.o)
 .data.sockfd   0x000c713c        0x4 networking/udhcp/lib.a(dhcpc.o)
 .data.dhcprelay_xid_list
                0x000c7140       0x20 networking/udhcp/lib.a(dhcprelay.o)
 .data.limitt   0x000c7160        0x4 runit/lib.a(chpst.o)
 .data.limitr   0x000c7164        0x4 runit/lib.a(chpst.o)
 .data.limitc   0x000c7168        0x4 runit/lib.a(chpst.o)
 .data.limitf   0x000c716c        0x4 runit/lib.a(chpst.o)
 .data.limitp   0x000c7170        0x4 runit/lib.a(chpst.o)
 .data.limito   0x000c7174        0x4 runit/lib.a(chpst.o)
 .data.limitd   0x000c7178        0x4 runit/lib.a(chpst.o)
 .data.limita   0x000c717c        0x4 runit/lib.a(chpst.o)
 .data.limitl   0x000c7180        0x4 runit/lib.a(chpst.o)
 .data.limits   0x000c7184        0x4 runit/lib.a(chpst.o)
 .data.pidchanged
                0x000c7188        0x4 runit/lib.a(runsv.o)
 .data.check    0x000c718c        0x4 runit/lib.a(runsvdir.o)
 .data.linemax  0x000c7190        0x4 runit/lib.a(svlogd.o)
 .data.replace  0x000c7194        0x4 runit/lib.a(svlogd.o)
 .data.linecomplete
                0x000c7198        0x4 runit/lib.a(svlogd.o)
 .data.parsefile
                0x000c719c        0x4 shell/lib.a(ash.o)
 .data.plinno   0x000c71a0        0x4 shell/lib.a(ash.o)
 .data.sstrend  0x000c71a4        0x4 shell/lib.a(ash.o)
 .data.stacknleft
                0x000c71a8        0x4 shell/lib.a(ash.o)
 .data.stacknxt
                0x000c71ac        0x4 shell/lib.a(ash.o)
 .data.stackp   0x000c71b0        0x4 shell/lib.a(ash.o)
 .data.varinit  0x000c71b4       0x80 shell/lib.a(ash.o)
 .data.builtinloc
                0x000c7234        0x4 shell/lib.a(ash.o)
 .data.physdir  0x000c7238        0x4 shell/lib.a(ash.o)
 .data.curdir   0x000c723c        0x4 shell/lib.a(ash.o)
 .data.ttyfd    0x000c7240        0x4 shell/lib.a(ash.o)
 .data.herefd   0x000c7244        0x4 shell/lib.a(ash.o)
 .data.SMrdn    0x000c7248       0x10 sysklogd/lib.a(logread.o)
 .data.SMrup    0x000c7258        0x8 sysklogd/lib.a(logread.o)
 .data.facilitynames
                0x000c7260       0xb8 sysklogd/lib.a(syslogd.o)
                0x000c7260                facilitynames
 .data.prioritynames
                0x000c7318       0x68 sysklogd/lib.a(syslogd.o)
                0x000c7318                prioritynames
 .data.partitions
                0x000c7380        0x4 util-linux/lib.a(fdisk.o)
 .data.type_open
                0x000c7384        0x4 util-linux/lib.a(fdisk.o)
 .data.display_in_cyl_units
                0x000c7388        0x4 util-linux/lib.a(fdisk.o)
 .data.sector_offset
                0x000c738c        0x4 util-linux/lib.a(fdisk.o)
 .data.sector_size
                0x000c7390        0x4 util-linux/lib.a(fdisk.o)
 .data.units_per_sector
                0x000c7394        0x4 util-linux/lib.a(fdisk.o)
 .data.dos_compatible_flag
                0x000c7398        0x4 util-linux/lib.a(fdisk.o)
 .data.fslist   0x000c739c        0x4 util-linux/lib.a(mount.o)
                0x000c739c                fslist
 .data.mount_options
                0x000c73a0       0xf8 util-linux/lib.a(mount.o)
 .data.p.2      0x000c7498       0x10 util-linux/lib.a(mount.o)
 .data.cache.0  0x000c74a8        0x4 libbb/lib.a(inet_common.o)
 .data.cmdedit_termw
                0x000c74ac        0x4 libbb/lib.a(lineedit.o)

.data1
 *(.data1)

.tdata
 *(.tdata .tdata.* .gnu.linkonce.td.*)

.tbss
 *(.tbss .tbss.* .gnu.linkonce.tb.*)
 *(.tcommon)

.eh_frame       0x000c74b0        0x4
 *(.eh_frame)
 .eh_frame      0x000c74b0        0x4 /home/zion/gcc_jz2440/arm-linux-gcc-3.4.5-glibc-2.3.6/bin/../lib/gcc/arm-linux/3.4.5/crtend.o

.gcc_except_table
 *(.gcc_except_table)

.dynamic        0x000c74b4       0xd8
 *(.dynamic)
 .dynamic       0x000c74b4       0xd8 /home/zion/gcc_jz2440/arm-linux-gcc-3.4.5-glibc-2.3.6/bin/../lib/gcc/arm-linux/3.4.5/../../../../arm-linux/lib/crti.o
                0x000c74b4                _DYNAMIC

.ctors          0x000c758c        0x8
 *crtbegin*.o(.ctors)
 *(EXCLUDE_FILE(*crtend*.o) .ctors)
 .ctors         0x000c758c        0x4 /home/zion/gcc_jz2440/arm-linux-gcc-3.4.5-glibc-2.3.6/bin/../lib/gcc/arm-linux/3.4.5/crtbegin.o
 *(SORT(.ctors.*))
 *(.ctors)
 .ctors         0x000c7590        0x4 /home/zion/gcc_jz2440/arm-linux-gcc-3.4.5-glibc-2.3.6/bin/../lib/gcc/arm-linux/3.4.5/crtend.o

.dtors          0x000c7594        0x8
 *crtbegin*.o(.dtors)
 *(EXCLUDE_FILE(*crtend*.o) .dtors)
 .dtors         0x000c7594        0x4 /home/zion/gcc_jz2440/arm-linux-gcc-3.4.5-glibc-2.3.6/bin/../lib/gcc/arm-linux/3.4.5/crtbegin.o
 *(SORT(.dtors.*))
 *(.dtors)
 .dtors         0x000c7598        0x4 /home/zion/gcc_jz2440/arm-linux-gcc-3.4.5-glibc-2.3.6/bin/../lib/gcc/arm-linux/3.4.5/crtend.o

.jcr            0x000c759c        0x4
 *(.jcr)
 .jcr           0x000c759c        0x4 /home/zion/gcc_jz2440/arm-linux-gcc-3.4.5-glibc-2.3.6/bin/../lib/gcc/arm-linux/3.4.5/crtend.o

.got            0x000c75a0      0x628
 *(.got.plt)
 .got.plt       0x000c75a0      0x60c /home/zion/gcc_jz2440/arm-linux-gcc-3.4.5-glibc-2.3.6/bin/../lib/gcc/arm-linux/3.4.5/../../../../arm-linux/lib/crti.o
                0x000c75a0                _GLOBAL_OFFSET_TABLE_
 *(.got)
 .got           0x000c7bac       0x1c /home/zion/gcc_jz2440/arm-linux-gcc-3.4.5-glibc-2.3.6/bin/../lib/gcc/arm-linux/3.4.5/../../../../arm-linux/lib/crti.o
                0x000c7bc8                _edata = .
                0x000c7bc8                PROVIDE (edata, .)
                0x000c7bc8                __bss_start = .
                0x000c7bc8                __bss_start__ = .

.bss            0x000c7bc8     0x3224
 *(.dynbss)
 .dynbss        0x000c7bc8       0x24 /home/zion/gcc_jz2440/arm-linux-gcc-3.4.5-glibc-2.3.6/bin/../lib/gcc/arm-linux/3.4.5/../../../../arm-linux/lib/crti.o
                0x000c7bc8                timezone@@GLIBC_2.0
                0x000c7bcc                daylight@@GLIBC_2.0
                0x000c7bc8                __timezone@@GLIBC_2.0
                0x000c7bcc                __daylight@@GLIBC_2.0
                0x000c7bd0                optind@@GLIBC_2.0
                0x000c7bd4                stderr@@GLIBC_2.0
                0x000c7bd8                environ@@GLIBC_2.0
                0x000c7bd8                _environ@@GLIBC_2.0
                0x000c7bdc                stdin@@GLIBC_2.0
                0x000c7be0                stdout@@GLIBC_2.0
                0x000c7be4                opterr@@GLIBC_2.0
                0x000c7bd8                __environ@@GLIBC_2.0
                0x000c7be8                optarg@@GLIBC_2.0
 *(.bss .bss.* .gnu.linkonce.b.*)
 .bss           0x000c7bec        0x1 /home/zion/gcc_jz2440/arm-linux-gcc-3.4.5-glibc-2.3.6/bin/../lib/gcc/arm-linux/3.4.5/crtbegin.o
 *fill*         0x000c7bed        0x3 00
 .bss.current_applet
                0x000c7bf0        0x4 applets/built-in.o
                0x000c7bf0                current_applet
 .bss.applet_name
                0x000c7bf4        0x4 applets/built-in.o
                0x000c7bf4                applet_name
 .bss.ruid      0x000c7bf8        0x4 applets/built-in.o
 .bss.suid_config
                0x000c7bfc        0x4 applets/built-in.o
 .bss.suid_cfg_readable
                0x000c7c00        0x1 applets/built-in.o
 *fill*         0x000c7c01        0x3 00
 .bss.map       0x000c7c04        0x4 archival/lib.a(rpm.o)
 .bss.mytags    0x000c7c08        0x4 archival/lib.a(rpm.o)
 .bss.tagcount  0x000c7c0c        0x4 archival/lib.a(rpm.o)
 .bss.warned.0  0x000c7c10        0x4 archival/lib.a(tar.o)
 .bss.ar_long_names.0
                0x000c7c14        0x4 archival/libunarchive/lib.a(get_header_ar.o)
 .bss.ar_long_name_size.1
                0x000c7c18        0x4 archival/libunarchive/lib.a(get_header_ar.o)
 .bss.inode.2   0x000c7c1c        0x4 archival/libunarchive/lib.a(get_header_cpio.o)
 .bss.end.0     0x000c7c20        0x4 archival/libunarchive/lib.a(get_header_tar.o)
 .bss.longname  0x000c7c24        0x4 archival/libunarchive/lib.a(get_header_tar.o)
 .bss.linkname  0x000c7c28        0x4 archival/libunarchive/lib.a(get_header_tar.o)
 .bss.julian    0x000c7c2c        0x4 coreutils/lib.a(cal.o)
 .bss.cut_lists
                0x000c7c30        0x4 coreutils/lib.a(cut.o)
 .bss.nlists    0x000c7c34        0x4 coreutils/lib.a(cut.o)
 .bss.status    0x000c7c38        0x4 coreutils/lib.a(du.o)
 .bss.print_files
                0x000c7c3c        0x4 coreutils/lib.a(du.o)
 .bss.slink_depth
                0x000c7c40        0x4 coreutils/lib.a(du.o)
 .bss.du_depth  0x000c7c44        0x4 coreutils/lib.a(du.o)
 .bss.one_file_system
                0x000c7c48        0x4 coreutils/lib.a(du.o)
 .bss.dir_dev   0x000c7c4c        0x8 coreutils/lib.a(du.o)
 .bss.flags     0x000c7c54        0x4 coreutils/lib.a(fold.o)
 .bss.show_color
                0x000c7c58        0x4 coreutils/lib.a(ls.o)
 .bss.all_fmt   0x000c7c5c        0x4 coreutils/lib.a(ls.o)
 .bss.current_time_t
                0x000c7c60        0x4 coreutils/lib.a(ls.o)
 .bss.key_separator
                0x000c7c64        0x1 coreutils/lib.a(sort.o)
 *fill*         0x000c7c65        0x3 00
 .bss.key_list  0x000c7c68        0x4 coreutils/lib.a(sort.o)
 .bss.buf       0x000c7c6c       0x1e coreutils/lib.a(stat.o)
 *fill*         0x000c7c8a        0x2 00
 .bss.t_wp      0x000c7c8c        0x4 coreutils/lib.a(test.o)
 .bss.t_wp_op   0x000c7c90        0x4 coreutils/lib.a(test.o)
 .bss.group_array
                0x000c7c94        0x4 coreutils/lib.a(test.o)
 .bss.ngroups   0x000c7c98        0x4 coreutils/lib.a(test.o)
 .bss.leaving   0x000c7c9c       0xac coreutils/lib.a(test.o)
 .bss.userspec  0x000c7d48        0x4 debianutils/lib.a(start_stop_daemon.o)
 .bss.cmdname   0x000c7d4c        0x4 debianutils/lib.a(start_stop_daemon.o)
 .bss.execname  0x000c7d50        0x4 debianutils/lib.a(start_stop_daemon.o)
 .bss.pidfile   0x000c7d54        0x4 debianutils/lib.a(start_stop_daemon.o)
 .bss.quiet     0x000c7d58        0x4 debianutils/lib.a(start_stop_daemon.o)
 .bss.found     0x000c7d5c        0x4 debianutils/lib.a(start_stop_daemon.o)
 .bss.kill_sent.0
                0x000c7d60        0x4 e2fsprogs/lib.a(fsck.o)
 .bss.devices   0x000c7d64        0x4 e2fsprogs/lib.a(fsck.o)
 .bss.args      0x000c7d68        0x4 e2fsprogs/lib.a(fsck.o)
 .bss.num_devices
                0x000c7d6c        0x4 e2fsprogs/lib.a(fsck.o)
 .bss.num_args  0x000c7d70        0x4 e2fsprogs/lib.a(fsck.o)
 .bss.verbose   0x000c7d74        0x4 e2fsprogs/lib.a(fsck.o)
 .bss.fs_type_list
                0x000c7d78        0x4 e2fsprogs/lib.a(fsck.o)
 .bss.fs_type_flag
                0x000c7d7c        0x4 e2fsprogs/lib.a(fsck.o)
 .bss.fs_type_negated
                0x000c7d80        0x4 e2fsprogs/lib.a(fsck.o)
 .bss.cancel_requested
                0x000c7d84        0x4 e2fsprogs/lib.a(fsck.o)
 .bss.doall     0x000c7d88        0x4 e2fsprogs/lib.a(fsck.o)
 .bss.noexecute
                0x000c7d8c        0x4 e2fsprogs/lib.a(fsck.o)
 .bss.serialize
                0x000c7d90        0x4 e2fsprogs/lib.a(fsck.o)
 .bss.skip_root
                0x000c7d94        0x4 e2fsprogs/lib.a(fsck.o)
 .bss.notitle   0x000c7d98        0x4 e2fsprogs/lib.a(fsck.o)
 .bss.parallel_root
                0x000c7d9c        0x4 e2fsprogs/lib.a(fsck.o)
 .bss.force_all_parallel
                0x000c7da0        0x4 e2fsprogs/lib.a(fsck.o)
 .bss.num_running
                0x000c7da4        0x4 e2fsprogs/lib.a(fsck.o)
 .bss.max_running
                0x000c7da8        0x4 e2fsprogs/lib.a(fsck.o)
 .bss.fstype    0x000c7dac        0x4 e2fsprogs/lib.a(fsck.o)
 .bss.filesys_info
                0x000c7db0        0x4 e2fsprogs/lib.a(fsck.o)
 .bss.filesys_last
                0x000c7db4        0x4 e2fsprogs/lib.a(fsck.o)
 .bss.instance_list
                0x000c7db8        0x4 e2fsprogs/lib.a(fsck.o)
 .bss.lines     0x000c7dbc       0x10 editors/lib.a(ed.o)
 .bss.curLine   0x000c7dcc        0x4 editors/lib.a(ed.o)
 .bss.curNum    0x000c7dd0        0x4 editors/lib.a(ed.o)
 .bss.lastNum   0x000c7dd4        0x4 editors/lib.a(ed.o)
 .bss.marks     0x000c7dd8       0x68 editors/lib.a(ed.o)
 .bss.dirty     0x000c7e40        0x4 editors/lib.a(ed.o)
 .bss.bufBase   0x000c7e44        0x4 editors/lib.a(ed.o)
 .bss.bufPtr    0x000c7e48        0x4 editors/lib.a(ed.o)
 .bss.fileName  0x000c7e4c        0x4 editors/lib.a(ed.o)
 .bss.bufUsed   0x000c7e50        0x4 editors/lib.a(ed.o)
 .bss.bufSize   0x000c7e54        0x4 editors/lib.a(ed.o)
 .bss.c.1       0x000c7e58        0x1 editors/lib.a(vi.o)
 *fill*         0x000c7e59        0x3 00
 .bss.old_offset.4
                0x000c7e5c        0x4 editors/lib.a(vi.o)
 .bss.tot.5     0x000c7e60        0x4 editors/lib.a(vi.o)
 .bss.obufp.3   0x000c7e64        0x4 editors/lib.a(vi.o)
 .bss.cur_line.0
                0x000c7e68        0x4 editors/lib.a(vi.o)
 .bss.vi_setops
                0x000c7e6c        0x4 editors/lib.a(vi.o)
 .bss.editing   0x000c7e70        0x4 editors/lib.a(vi.o)
 .bss.cmd_mode  0x000c7e74        0x4 editors/lib.a(vi.o)
 .bss.file_modified
                0x000c7e78        0x4 editors/lib.a(vi.o)
 .bss.fn_start  0x000c7e7c        0x4 editors/lib.a(vi.o)
 .bss.save_argc
                0x000c7e80        0x4 editors/lib.a(vi.o)
 .bss.cmdcnt    0x000c7e84        0x4 editors/lib.a(vi.o)
 .bss.rows      0x000c7e88        0x4 editors/lib.a(vi.o)
 .bss.columns   0x000c7e8c        0x4 editors/lib.a(vi.o)
 .bss.crow      0x000c7e90        0x4 editors/lib.a(vi.o)
 .bss.ccol      0x000c7e94        0x4 editors/lib.a(vi.o)
 .bss.offset    0x000c7e98        0x4 editors/lib.a(vi.o)
 .bss.status_buffer
                0x000c7e9c        0x4 editors/lib.a(vi.o)
 .bss.have_status_msg
                0x000c7ea0        0x4 editors/lib.a(vi.o)
 .bss.last_status_cksum
                0x000c7ea4        0x4 editors/lib.a(vi.o)
 .bss.current_filename
                0x000c7ea8        0x4 editors/lib.a(vi.o)
 .bss.screen    0x000c7eac        0x4 editors/lib.a(vi.o)
 .bss.screensize
                0x000c7eb0        0x4 editors/lib.a(vi.o)
 .bss.screenbegin
                0x000c7eb4        0x4 editors/lib.a(vi.o)
 .bss.tabstop   0x000c7eb8        0x4 editors/lib.a(vi.o)
 .bss.erase_char
                0x000c7ebc        0x1 editors/lib.a(vi.o)
 .bss.last_input_char
                0x000c7ebd        0x1 editors/lib.a(vi.o)
 .bss.last_forward_char
                0x000c7ebe        0x1 editors/lib.a(vi.o)
 *fill*         0x000c7ebf        0x1 00
 .bss.adding2q  0x000c7ec0        0x4 editors/lib.a(vi.o)
 .bss.last_modifying_cmd
                0x000c7ec4        0x4 editors/lib.a(vi.o)
 .bss.ioq       0x000c7ec8        0x4 editors/lib.a(vi.o)
 .bss.ioq_start
                0x000c7ecc        0x4 editors/lib.a(vi.o)
 .bss.last_row  0x000c7ed0        0x4 editors/lib.a(vi.o)
 .bss.my_pid    0x000c7ed4        0x4 editors/lib.a(vi.o)
 .bss.modifying_cmds
                0x000c7ed8        0x4 editors/lib.a(vi.o)
 .bss.last_search_pattern
                0x000c7edc        0x4 editors/lib.a(vi.o)
 .bss.readed_for_parse
                0x000c7ee0        0x4 editors/lib.a(vi.o)
 .bss.xdev_dev  0x000c7ee4        0x4 findutils/lib.a(find.o)
 .bss.xdev_count
                0x000c7ee8        0x4 findutils/lib.a(find.o)
 .bss.actions   0x000c7eec        0x4 findutils/lib.a(find.o)
 .bss.max_matches
                0x000c7ef0        0x4 findutils/lib.a(grep.o)
 .bss.reflags   0x000c7ef4        0x4 findutils/lib.a(grep.o)
 .bss.invert_search
                0x000c7ef8        0x1 findutils/lib.a(grep.o)
 .bss.print_filename
                0x000c7ef9        0x1 findutils/lib.a(grep.o)
 .bss.open_errors
                0x000c7efa        0x1 findutils/lib.a(grep.o)
 .bss.did_print_line
                0x000c7efb        0x1 findutils/lib.a(grep.o)
 .bss.lines_before
                0x000c7efc        0x4 findutils/lib.a(grep.o)
 .bss.lines_after
                0x000c7f00        0x4 findutils/lib.a(grep.o)
 .bss.before_buf
                0x000c7f04        0x4 findutils/lib.a(grep.o)
 .bss.last_line_printed
                0x000c7f08        0x4 findutils/lib.a(grep.o)
 .bss.pattern_head
                0x000c7f0c        0x4 findutils/lib.a(grep.o)
 .bss.cur_file  0x000c7f10        0x4 findutils/lib.a(grep.o)
 .bss.eof_stdin_detected
                0x000c7f14        0x4 findutils/lib.a(xargs.o)
 .bss.verbose   0x000c7f18        0x4 ipsvd/lib.a(tcpudp.o)
 .bss.max_per_host
                0x000c7f1c        0x4 ipsvd/lib.a(tcpudp.o)
 .bss.cur_per_host
                0x000c7f20        0x4 ipsvd/lib.a(tcpudp.o)
 .bss.cnum      0x000c7f24        0x4 ipsvd/lib.a(tcpudp.o)
 .bss.cc        0x000c7f28        0x4 ipsvd/lib.a(ipsvd_perhost.o)
 .bss.cclen     0x000c7f2c        0x4 ipsvd/lib.a(ipsvd_perhost.o)
 .bss.done.1    0x000c7f30        0x4 libbb/lib.a(dump.o)
 .bss.savp.4    0x000c7f34        0x4 libbb/lib.a(dump.o)
 .bss.nextfs.0  0x000c7f38        0x4 libbb/lib.a(dump.o)
 .bss.bb_dump_fshead
                0x000c7f3c        0x4 libbb/lib.a(dump.o)
                0x000c7f3c                bb_dump_fshead
 .bss.bb_dump_blocksize
                0x000c7f40        0x4 libbb/lib.a(dump.o)
                0x000c7f40                bb_dump_blocksize
 .bss.bb_dump_skip
                0x000c7f44        0x8 libbb/lib.a(dump.o)
                0x000c7f44                bb_dump_skip
 .bss.endfu     0x000c7f4c        0x4 libbb/lib.a(dump.o)
 .bss._argv     0x000c7f50        0x4 libbb/lib.a(dump.o)
 .bss.savaddress
                0x000c7f54        0x8 libbb/lib.a(dump.o)
 .bss.eaddress  0x000c7f5c        0x8 libbb/lib.a(dump.o)
 .bss.address   0x000c7f64        0x8 libbb/lib.a(dump.o)
 .bss.exitval   0x000c7f6c        0x4 libbb/lib.a(dump.o)
 .bss.die_sleep
                0x000c7f70        0x4 libbb/lib.a(error_msg_and_die.o)
                0x000c7f70                die_sleep
 .bss.opt_complementary
                0x000c7f74        0x4 libbb/lib.a(getopt32.o)
                0x000c7f74                opt_complementary
 .bss.applet_long_options
                0x000c7f78        0x4 libbb/lib.a(getopt32.o)
                0x000c7f78                applet_long_options
 .bss.option_mask32
                0x000c7f7c        0x4 libbb/lib.a(getopt32.o)
                0x000c7f7c                option_mask32
 .bss.str.3     0x000c7f80       0x15 libbb/lib.a(human_readable.o)
 *fill*         0x000c7f95        0x3 00
 .bss.ino_dev_hashtable
                0x000c7f98        0x4 libbb/lib.a(inode_hash.o)
 .bss.const_int_0
                0x000c7f9c        0x4 libbb/lib.a(messages.o)
                0x000c7f9c                const_int_0
 .bss.bb_common_bufsiz1
                0x000c7fa0     0x2001 libbb/lib.a(messages.o)
                0x000c7fa0                bb_common_bufsiz1
 .bss.buf.0     0x000c9fa1        0xc libbb/lib.a(mode_string.o)
 *fill*         0x000c9fad        0x3 00
 .bss.wrote_pidfile
                0x000c9fb0        0x4 libbb/lib.a(pidfile.o)
                0x000c9fb0                wrote_pidfile
 .bss.username  0x000c9fb4        0x8 libbb/lib.a(procps.o)
 .bss.groupname
                0x000c9fbc        0x8 libbb/lib.a(procps.o)
 .bss.local_buf
                0x000c9fc4        0xc libbb/lib.a(xfuncs.o)
 .bss.ptr_to_statics
                0x000c9fd0        0x4 libpwdgrp/lib.a(pwd_grp.o)
 .bss.pwf       0x000c9fd4        0x4 libpwdgrp/lib.a(pwd_grp.o)
 .bss.grf       0x000c9fd8        0x4 libpwdgrp/lib.a(pwd_grp.o)
 .bss.spf       0x000c9fdc        0x4 libpwdgrp/lib.a(pwd_grp.o)
 .bss.short_tty
                0x000c9fe0        0x4 loginutils/lib.a(login.o)
 .bss.pw        0x000c9fe4        0x4 loginutils/lib.a(vlock.o)
 .bss.ovtm      0x000c9fe8        0x8 loginutils/lib.a(vlock.o)
 .bss.oterm     0x000c9ff0       0x3c loginutils/lib.a(vlock.o)
 .bss.vfd       0x000ca02c        0x4 loginutils/lib.a(vlock.o)
 .bss.o_lock_all
                0x000ca030        0x4 loginutils/lib.a(vlock.o)
 .bss.LogFile   0x000ca034        0x4 miscutils/lib.a(crond.o)
 .bss.FileBase  0x000ca038        0x4 miscutils/lib.a(crond.o)
 .bss.pointer   0x000ca03c        0x4 miscutils/lib.a(dc.o)
 .bss.base      0x000ca040        0x1 miscutils/lib.a(dc.o)
 *fill*         0x000ca041        0x3 00
 .bss.get_identity
                0x000ca044        0x4 miscutils/lib.a(hdparm.o)
 .bss.get_geom  0x000ca048        0x4 miscutils/lib.a(hdparm.o)
 .bss.do_flush  0x000ca04c        0x4 miscutils/lib.a(hdparm.o)
 .bss.do_ctimings
                0x000ca050        0x4 miscutils/lib.a(hdparm.o)
 .bss.do_timings
                0x000ca054        0x4 miscutils/lib.a(hdparm.o)
 .bss.reread_partn
                0x000ca058        0x4 miscutils/lib.a(hdparm.o)
 .bss.set_piomode
                0x000ca05c        0x4 miscutils/lib.a(hdparm.o)
 .bss.noisy_piomode
                0x000ca060        0x4 miscutils/lib.a(hdparm.o)
 .bss.set_readahead
                0x000ca064        0x4 miscutils/lib.a(hdparm.o)
 .bss.get_readahead
                0x000ca068        0x4 miscutils/lib.a(hdparm.o)
 .bss.set_readonly
                0x000ca06c        0x4 miscutils/lib.a(hdparm.o)
 .bss.get_readonly
                0x000ca070        0x4 miscutils/lib.a(hdparm.o)
 .bss.set_unmask
                0x000ca074        0x4 miscutils/lib.a(hdparm.o)
 .bss.get_unmask
                0x000ca078        0x4 miscutils/lib.a(hdparm.o)
 .bss.set_mult  0x000ca07c        0x4 miscutils/lib.a(hdparm.o)
 .bss.get_mult  0x000ca080        0x4 miscutils/lib.a(hdparm.o)
 .bss.set_dma_q
                0x000ca084        0x4 miscutils/lib.a(hdparm.o)
 .bss.get_dma_q
                0x000ca088        0x4 miscutils/lib.a(hdparm.o)
 .bss.set_nowerr
                0x000ca08c        0x4 miscutils/lib.a(hdparm.o)
 .bss.get_nowerr
                0x000ca090        0x4 miscutils/lib.a(hdparm.o)
 .bss.set_keep  0x000ca094        0x4 miscutils/lib.a(hdparm.o)
 .bss.get_keep  0x000ca098        0x4 miscutils/lib.a(hdparm.o)
 .bss.set_io32bit
                0x000ca09c        0x4 miscutils/lib.a(hdparm.o)
 .bss.get_io32bit
                0x000ca0a0        0x4 miscutils/lib.a(hdparm.o)
 .bss.piomode   0x000ca0a4        0x4 miscutils/lib.a(hdparm.o)
 .bss.Xreadahead
                0x000ca0a8        0x4 miscutils/lib.a(hdparm.o)
 .bss.readonly  0x000ca0ac        0x4 miscutils/lib.a(hdparm.o)
 .bss.unmask    0x000ca0b0        0x4 miscutils/lib.a(hdparm.o)
 .bss.mult      0x000ca0b4        0x4 miscutils/lib.a(hdparm.o)
 .bss.dma_q     0x000ca0b8        0x4 miscutils/lib.a(hdparm.o)
 .bss.nowerr    0x000ca0bc        0x4 miscutils/lib.a(hdparm.o)
 .bss.keep      0x000ca0c0        0x4 miscutils/lib.a(hdparm.o)
 .bss.io32bit   0x000ca0c4        0x4 miscutils/lib.a(hdparm.o)
 .bss.dma       0x000ca0c8        0x4 miscutils/lib.a(hdparm.o)
 .bss.set_dma   0x000ca0cc        0x4 miscutils/lib.a(hdparm.o)
 .bss.get_dma   0x000ca0d0        0x4 miscutils/lib.a(hdparm.o)
 .bss.set_xfermode
                0x000ca0d4        0x4 miscutils/lib.a(hdparm.o)
 .bss.get_xfermode
                0x000ca0d8        0x4 miscutils/lib.a(hdparm.o)
 .bss.set_dkeep
                0x000ca0dc        0x4 miscutils/lib.a(hdparm.o)
 .bss.get_dkeep
                0x000ca0e0        0x4 miscutils/lib.a(hdparm.o)
 .bss.set_standby
                0x000ca0e4        0x4 miscutils/lib.a(hdparm.o)
 .bss.get_standby
                0x000ca0e8        0x4 miscutils/lib.a(hdparm.o)
 .bss.set_lookahead
                0x000ca0ec        0x4 miscutils/lib.a(hdparm.o)
 .bss.get_lookahead
                0x000ca0f0        0x4 miscutils/lib.a(hdparm.o)
 .bss.set_prefetch
                0x000ca0f4        0x4 miscutils/lib.a(hdparm.o)
 .bss.get_prefetch
                0x000ca0f8        0x4 miscutils/lib.a(hdparm.o)
 .bss.set_defects
                0x000ca0fc        0x4 miscutils/lib.a(hdparm.o)
 .bss.get_defects
                0x000ca100        0x4 miscutils/lib.a(hdparm.o)
 .bss.set_wcache
                0x000ca104        0x4 miscutils/lib.a(hdparm.o)
 .bss.get_wcache
                0x000ca108        0x4 miscutils/lib.a(hdparm.o)
 .bss.set_doorlock
                0x000ca10c        0x4 miscutils/lib.a(hdparm.o)
 .bss.get_doorlock
                0x000ca110        0x4 miscutils/lib.a(hdparm.o)
 .bss.set_seagate
                0x000ca114        0x4 miscutils/lib.a(hdparm.o)
 .bss.get_seagate
                0x000ca118        0x4 miscutils/lib.a(hdparm.o)
 .bss.set_standbynow
                0x000ca11c        0x4 miscutils/lib.a(hdparm.o)
 .bss.get_standbynow
                0x000ca120        0x4 miscutils/lib.a(hdparm.o)
 .bss.set_sleepnow
                0x000ca124        0x4 miscutils/lib.a(hdparm.o)
 .bss.get_sleepnow
                0x000ca128        0x4 miscutils/lib.a(hdparm.o)
 .bss.get_powermode
                0x000ca12c        0x4 miscutils/lib.a(hdparm.o)
 .bss.set_apmmode
                0x000ca130        0x4 miscutils/lib.a(hdparm.o)
 .bss.get_apmmode
                0x000ca134        0x4 miscutils/lib.a(hdparm.o)
 .bss.xfermode_requested
                0x000ca138        0x4 miscutils/lib.a(hdparm.o)
 .bss.dkeep     0x000ca13c        0x4 miscutils/lib.a(hdparm.o)
 .bss.standby_requested
                0x000ca140        0x4 miscutils/lib.a(hdparm.o)
 .bss.lookahead
                0x000ca144        0x4 miscutils/lib.a(hdparm.o)
 .bss.prefetch  0x000ca148        0x4 miscutils/lib.a(hdparm.o)
 .bss.defects   0x000ca14c        0x4 miscutils/lib.a(hdparm.o)
 .bss.wcache    0x000ca150        0x4 miscutils/lib.a(hdparm.o)
 .bss.doorlock  0x000ca154        0x4 miscutils/lib.a(hdparm.o)
 .bss.apmmode   0x000ca158        0x4 miscutils/lib.a(hdparm.o)
 .bss.get_IDentity
                0x000ca15c        0x4 miscutils/lib.a(hdparm.o)
 .bss.set_busstate
                0x000ca160        0x4 miscutils/lib.a(hdparm.o)
 .bss.get_busstate
                0x000ca164        0x4 miscutils/lib.a(hdparm.o)
 .bss.perform_reset
                0x000ca168        0x4 miscutils/lib.a(hdparm.o)
 .bss.perform_tristate
                0x000ca16c        0x4 miscutils/lib.a(hdparm.o)
 .bss.unregister_hwif
                0x000ca170        0x4 miscutils/lib.a(hdparm.o)
 .bss.scan_hwif
                0x000ca174        0x4 miscutils/lib.a(hdparm.o)
 .bss.busstate  0x000ca178        0x4 miscutils/lib.a(hdparm.o)
 .bss.tristate  0x000ca17c        0x4 miscutils/lib.a(hdparm.o)
 .bss.hwif      0x000ca180        0x4 miscutils/lib.a(hdparm.o)
 .bss.hwif_data
                0x000ca184        0x4 miscutils/lib.a(hdparm.o)
 .bss.hwif_ctrl
                0x000ca188        0x4 miscutils/lib.a(hdparm.o)
 .bss.hwif_irq  0x000ca18c        0x4 miscutils/lib.a(hdparm.o)
 .bss.ps.0      0x000ca190        0x4 miscutils/lib.a(time.o)
 .bss.printed_info.2
                0x000ca194        0x4 modutils/lib.a(insmod.o)
 .bss.ksyms     0x000ca198        0x4 modutils/lib.a(insmod.o)
 .bss.nksyms    0x000ca19c        0x4 modutils/lib.a(insmod.o)
 .bss.ext_modules
                0x000ca1a0        0x4 modutils/lib.a(insmod.o)
 .bss.n_ext_modules
                0x000ca1a4        0x4 modutils/lib.a(insmod.o)
 .bss.n_ext_modules_used
                0x000ca1a8        0x4 modutils/lib.a(insmod.o)
 .bss.m_filename
                0x000ca1ac        0x4 modutils/lib.a(insmod.o)
 .bss.m_fullName
                0x000ca1b0        0x4 modutils/lib.a(insmod.o)
 .bss.depend    0x000ca1b4        0x4 modutils/lib.a(modprobe.o)
 .bss.main_opts
                0x000ca1b8        0x4 modutils/lib.a(modprobe.o)
 .bss.ap        0x000ca1bc        0x4 networking/lib.a(arp.o)
 .bss.hw        0x000ca1c0        0x4 networking/lib.a(arp.o)
 .bss.sockfd    0x000ca1c4        0x4 networking/lib.a(arp.o)
 .bss.hw_set    0x000ca1c8        0x4 networking/lib.a(arp.o)
 .bss.start.0   0x000ca1cc        0x4 networking/lib.a(arping.o)
 .bss.src       0x000ca1d0        0x4 networking/lib.a(arping.o)
 .bss.dst       0x000ca1d4        0x4 networking/lib.a(arping.o)
 .bss.me        0x000ca1d8       0x14 networking/lib.a(arping.o)
 .bss.he        0x000ca1ec       0x14 networking/lib.a(arping.o)
 .bss.last      0x000ca200        0x4 networking/lib.a(arping.o)
 .bss.sock      0x000ca204        0x4 networking/lib.a(arping.o)
 .bss.timeout_us
                0x000ca208        0x4 networking/lib.a(arping.o)
 .bss.sent      0x000ca20c        0x4 networking/lib.a(arping.o)
 .bss.brd_sent  0x000ca210        0x4 networking/lib.a(arping.o)
 .bss.received  0x000ca214        0x4 networking/lib.a(arping.o)
 .bss.brd_recv  0x000ca218        0x4 networking/lib.a(arping.o)
 .bss.req_recv  0x000ca21c        0x4 networking/lib.a(arping.o)
 .bss.dnsentry  0x000ca220        0x4 networking/lib.a(dnsd.o)
 .bss.verbose_flag
                0x000ca224        0x4 networking/lib.a(ftpgetput.o)
 .bss.do_continue
                0x000ca228        0x4 networking/lib.a(ftpgetput.o)
 .bss.label_buf.1
                0x000ca22c       0x14 networking/lib.a(ifupdown.o)
 .bss.my_environ
                0x000ca240        0x4 networking/lib.a(ifupdown.o)
 .bss.startup_PATH
                0x000ca244        0x4 networking/lib.a(ifupdown.o)
 .bss.rs.0      0x000ca248        0x4 networking/lib.a(inetd.o)
 .bss.rlim_ofile
                0x000ca24c       0x10 networking/lib.a(inetd.o)
 .bss.servtab   0x000ca25c        0x4 networking/lib.a(inetd.o)
 .bss.nsock     0x000ca260        0x4 networking/lib.a(inetd.o)
 .bss.maxsock   0x000ca264        0x4 networking/lib.a(inetd.o)
 .bss.allsock   0x000ca268       0x80 networking/lib.a(inetd.o)
 .bss.toomany   0x000ca2e8        0x4 networking/lib.a(inetd.o)
 .bss.timingout
                0x000ca2ec        0x4 networking/lib.a(inetd.o)
 .bss.sp        0x000ca2f0        0x4 networking/lib.a(inetd.o)
 .bss.uid       0x000ca2f4        0x4 networking/lib.a(inetd.o)
 .bss.fconfig   0x000ca2f8        0x4 networking/lib.a(inetd.o)
 .bss.defhost   0x000ca2fc        0x4 networking/lib.a(inetd.o)
 .bss.Argv      0x000ca300        0x4 networking/lib.a(inetd.o)
 .bss.LastArg   0x000ca304        0x4 networking/lib.a(inetd.o)
 .bss.ring      0x000ca308       0x80 networking/lib.a(inetd.o)
 .bss.endring   0x000ca388        0x4 networking/lib.a(inetd.o)
 .bss.buff.3    0x000ca38c        0x4 networking/lib.a(interface.o)
 .bss.buff.5    0x000ca390        0x4 networking/lib.a(interface.o)
 .bss.buff.4    0x000ca394        0x4 networking/lib.a(interface.o)
 .bss.proc_read.0
                0x000ca398        0x4 networking/lib.a(interface.o)
 .bss.buff.6    0x000ca39c        0x4 networking/lib.a(interface.o)
 .bss.interface_opt_a
                0x000ca3a0        0x4 networking/lib.a(interface.o)
                0x000ca3a0                interface_opt_a
 .bss.int_list  0x000ca3a4        0x4 networking/lib.a(interface.o)
 .bss.int_last  0x000ca3a8        0x4 networking/lib.a(interface.o)
 .bss.maxfd     0x000ca3ac        0x4 networking/lib.a(telnetd.o)
 .bss.sessions  0x000ca3b0        0x4 networking/lib.a(telnetd.o)
 .bss.outip     0x000ca3b4        0x4 networking/lib.a(traceroute.o)
 .bss.outudp    0x000ca3b8        0x4 networking/lib.a(traceroute.o)
 .bss.outdata   0x000ca3bc        0x4 networking/lib.a(traceroute.o)
 .bss.s         0x000ca3c0        0x4 networking/lib.a(traceroute.o)
 .bss.sndsock   0x000ca3c4        0x4 networking/lib.a(traceroute.o)
 .bss.packlen   0x000ca3c8        0x4 networking/lib.a(traceroute.o)
 .bss.minpacket
                0x000ca3cc        0x4 networking/lib.a(traceroute.o)
 .bss.pmtu      0x000ca3d0        0x4 networking/lib.a(traceroute.o)
 .bss.hostname  0x000ca3d4        0x4 networking/lib.a(traceroute.o)
 .bss.ident     0x000ca3d8        0x2 networking/lib.a(traceroute.o)
 *fill*         0x000ca3da        0x2 00
 .bss.lastupdate_sec.3
                0x000ca3dc        0x4 networking/lib.a(wget.o)
 .bss.start_sec.4
                0x000ca3e0        0x4 networking/lib.a(wget.o)
 .bss.lastsize.5
                0x000ca3e4        0x8 networking/lib.a(wget.o)
 .bss.totalsize.6
                0x000ca3ec        0x8 networking/lib.a(wget.o)
 .bss.content_len
                0x000ca3f4        0x8 networking/lib.a(wget.o)
 .bss.beg_range
                0x000ca3fc        0x8 networking/lib.a(wget.o)
 .bss.transferred
                0x000ca404        0x8 networking/lib.a(wget.o)
 .bss.chunked   0x000ca40c        0x1 networking/lib.a(wget.o)
 *fill*         0x000ca40d        0x3 00
 .bss.curfile   0x000ca410        0x4 networking/lib.a(wget.o)
 .bss.oneline   0x000ca414        0x4 networking/libiproute/lib.a(ip_parse_common_args.o)
                0x000ca414                oneline
 .bss._SL_      0x000ca418        0x1 networking/libiproute/lib.a(ip_parse_common_args.o)
                0x000ca418                _SL_
 *fill*         0x000ca419        0x3 00
 .bss.hz_internal.2
                0x000ca41c        0x4 networking/libiproute/lib.a(iproute.o)
 .bss.nbuf.0    0x000ca420       0x10 networking/libiproute/lib.a(ll_map.o)
 .bss.idxmap    0x000ca430       0x40 networking/libiproute/lib.a(ll_map.o)
 .bss.res.9     0x000ca470        0x4 networking/libiproute/lib.a(rt_names.o)
 .bss.res.7     0x000ca474        0x4 networking/libiproute/lib.a(rt_names.o)
 .bss.res.5     0x000ca478        0x4 networking/libiproute/lib.a(rt_names.o)
 .bss.res.3     0x000ca47c        0x4 networking/libiproute/lib.a(rt_names.o)
 .bss.res.1     0x000ca480        0x4 networking/libiproute/lib.a(rt_names.o)
 .bss.rtnl_rtprot_tab
                0x000ca484        0x4 networking/libiproute/lib.a(rt_names.o)
 .bss.rtnl_rtscope_tab
                0x000ca488        0x4 networking/libiproute/lib.a(rt_names.o)
 .bss.rtnl_rtrealm_tab
                0x000ca48c        0x4 networking/libiproute/lib.a(rt_names.o)
 .bss.rtnl_rtdsfield_tab
                0x000ca490        0x4 networking/libiproute/lib.a(rt_names.o)
 .bss.rtnl_rttable_tab
                0x000ca494        0x4 networking/libiproute/lib.a(rt_names.o)
 .bss.udhcp_client_config
                0x000ca498       0x38 networking/udhcp/lib.a(dhcpc.o)
                0x000ca498                udhcp_client_config
 .bss.timeout   0x000ca4d0        0x4 networking/udhcp/lib.a(dhcpc.o)
 .bss.requested_ip
                0x000ca4d4        0x4 networking/udhcp/lib.a(dhcpc.o)
 .bss.server_addr
                0x000ca4d8        0x4 networking/udhcp/lib.a(dhcpc.o)
 .bss.packet_num
                0x000ca4dc        0x4 networking/udhcp/lib.a(dhcpc.o)
 .bss.listen_mode
                0x000ca4e0        0x4 networking/udhcp/lib.a(dhcpc.o)
 .bss.state     0x000ca4e4        0x4 networking/udhcp/lib.a(dhcpc.o)
 .bss.udhcp_server_config
                0x000ca4e8       0x58 networking/udhcp/lib.a(dhcpd.o)
                0x000ca4e8                udhcp_server_config
 .bss.leases    0x000ca540        0x4 networking/udhcp/lib.a(dhcpd.o)
                0x000ca540                leases
 .bss.dhcprelay_stopflag
                0x000ca544        0x4 networking/udhcp/lib.a(dhcprelay.o)
 .bss.blank_chaddr.0
                0x000ca548       0x10 networking/udhcp/lib.a(leases.o)
 .bss.signal_pipe
                0x000ca558        0x8 networking/udhcp/lib.a(signalpipe.o)
 .bss.initialized.0
                0x000ca560        0x4 networking/udhcp/lib.a(clientpacket.o)
 .bss.set_user  0x000ca564        0x4 runit/lib.a(chpst.o)
 .bss.env_user  0x000ca568        0x4 runit/lib.a(chpst.o)
 .bss.env_dir   0x000ca56c        0x4 runit/lib.a(chpst.o)
 .bss.nicelvl   0x000ca570        0x4 runit/lib.a(chpst.o)
 .bss.root      0x000ca574        0x4 runit/lib.a(chpst.o)
 .bss.selfpipe  0x000ca578        0x8 runit/lib.a(runsv.o)
 .bss.svd       0x000ca580       0x50 runit/lib.a(runsv.o)
 .bss.sigterm   0x000ca5d0        0x4 runit/lib.a(runsv.o)
 .bss.haslog    0x000ca5d4        0x4 runit/lib.a(runsv.o)
 .bss.logpipe   0x000ca5d8        0x8 runit/lib.a(runsv.o)
 .bss.dir       0x000ca5e0        0x4 runit/lib.a(runsv.o)
 .bss.sv        0x000ca5e4        0x4 runit/lib.a(runsvdir.o)
                0x000ca5e4                sv
 .bss.svdir     0x000ca5e8        0x4 runit/lib.a(runsvdir.o)
 .bss.svnum     0x000ca5ec        0x4 runit/lib.a(runsvdir.o)
 .bss.rplog     0x000ca5f0        0x4 runit/lib.a(runsvdir.o)
 .bss.rploglen  0x000ca5f4        0x4 runit/lib.a(runsvdir.o)
 .bss.logpipe   0x000ca5f8        0x8 runit/lib.a(runsvdir.o)
 .bss.pfd       0x000ca600        0x8 runit/lib.a(runsvdir.o)
 .bss.stamplog  0x000ca608        0x4 runit/lib.a(runsvdir.o)
 .bss.exitsoon  0x000ca60c        0x4 runit/lib.a(runsvdir.o)
 .bss.set_pgrp  0x000ca610        0x4 runit/lib.a(runsvdir.o)
 .bss.acts      0x000ca614        0x4 runit/lib.a(sv.o)
 .bss.service   0x000ca618        0x4 runit/lib.a(sv.o)
 .bss.rc        0x000ca61c        0x4 runit/lib.a(sv.o)
 .bss.tstart    0x000ca620        0x8 runit/lib.a(sv.o)
 .bss.tnow      0x000ca628        0x8 runit/lib.a(sv.o)
 .bss.svstatus  0x000ca630       0x14 runit/lib.a(sv.o)
                0x000ca630                svstatus
 .bss.verbose   0x000ca644        0x4 runit/lib.a(svlogd.o)
 .bss.linelen   0x000ca648        0x4 runit/lib.a(svlogd.o)
 .bss.fndir     0x000ca64c        0x4 runit/lib.a(svlogd.o)
 .bss.fdwdir    0x000ca650        0x4 runit/lib.a(svlogd.o)
 .bss.wstat     0x000ca654        0x4 runit/lib.a(svlogd.o)
 .bss.nearest_rotate
                0x000ca658        0x4 runit/lib.a(svlogd.o)
 .bss.line      0x000ca65c        0x4 runit/lib.a(svlogd.o)
 .bss.exitasap  0x000ca660        0x4 runit/lib.a(svlogd.o)
 .bss.rotateasap
                0x000ca664        0x4 runit/lib.a(svlogd.o)
 .bss.reopenasap
                0x000ca668        0x4 runit/lib.a(svlogd.o)
 .bss.tmaxflag  0x000ca66c        0x4 runit/lib.a(svlogd.o)
 .bss.repl      0x000ca670        0x1 runit/lib.a(svlogd.o)
 *fill*         0x000ca671        0x3 00
 .bss.blocked_sigset
                0x000ca674        0x4 runit/lib.a(svlogd.o)
 .bss.fl_flag_0
                0x000ca678        0x4 runit/lib.a(svlogd.o)
 .bss.dir       0x000ca67c        0x4 runit/lib.a(svlogd.o)
 .bss.dirn      0x000ca680        0x4 runit/lib.a(svlogd.o)
 .bss.buf.4     0x000ca684       0x10 shell/lib.a(ash.o)
 .bss.is_interactive.0
                0x000ca694        0x4 shell/lib.a(ash.o)
 .bss.optlist   0x000ca698        0xe shell/lib.a(ash.o)
 .bss.nullstr   0x000ca6a6        0x1 shell/lib.a(ash.o)
 *fill*         0x000ca6a7        0x1 00
 .bss.minusc    0x000ca6a8        0x4 shell/lib.a(ash.o)
 .bss.rootpid   0x000ca6ac        0x4 shell/lib.a(ash.o)
 .bss.shlvl     0x000ca6b0        0x4 shell/lib.a(ash.o)
 .bss.trap      0x000ca6b4      0x104 shell/lib.a(ash.o)
 .bss.isloginsh
                0x000ca7b8        0x4 shell/lib.a(ash.o)
 .bss.sigmode   0x000ca7bc       0x40 shell/lib.a(ash.o)
 .bss.gotsig    0x000ca7fc       0x40 shell/lib.a(ash.o)
 .bss.arg0      0x000ca83c        0x4 shell/lib.a(ash.o)
 .bss.exception_handler
                0x000ca840        0x4 shell/lib.a(ash.o)
 .bss.exception
                0x000ca844        0x4 shell/lib.a(ash.o)
 .bss.suppressint
                0x000ca848        0x4 shell/lib.a(ash.o)
 .bss.intpending
                0x000ca84c        0x4 shell/lib.a(ash.o)
 .bss.exsig     0x000ca850        0x4 shell/lib.a(ash.o)
 .bss.pendingsig
                0x000ca854        0x4 shell/lib.a(ash.o)
 .bss.basepf    0x000ca858       0x30 shell/lib.a(ash.o)
 .bss.startlinno
                0x000ca888        0x4 shell/lib.a(ash.o)
 .bss.commandname
                0x000ca88c        0x4 shell/lib.a(ash.o)
 .bss.cmdenviron
                0x000ca890        0x4 shell/lib.a(ash.o)
 .bss.exitstatus
                0x000ca894        0x4 shell/lib.a(ash.o)
 .bss.stackbase
                0x000ca898      0x1fc shell/lib.a(ash.o)
 .bss.markp     0x000caa94        0x4 shell/lib.a(ash.o)
 .bss.argptr    0x000caa98        0x4 shell/lib.a(ash.o)
 .bss.optionarg
                0x000caa9c        0x4 shell/lib.a(ash.o)
 .bss.optptr    0x000caaa0        0x4 shell/lib.a(ash.o)
 .bss.rseed     0x000caaa4        0x4 shell/lib.a(ash.o)
 .bss.shellparam
                0x000caaa8        0xc shell/lib.a(ash.o)
 .bss.redirlist
                0x000caab4        0x4 shell/lib.a(ash.o)
 .bss.nullredirs
                0x000caab8        0x4 shell/lib.a(ash.o)
 .bss.preverrout_fd
                0x000caabc        0x4 shell/lib.a(ash.o)
 .bss.vartab    0x000caac0       0x9c shell/lib.a(ash.o)
 .bss.pathopt   0x000cab5c        0x4 shell/lib.a(ash.o)
 .bss.doprompt  0x000cab60        0x4 shell/lib.a(ash.o)
 .bss.needprompt
                0x000cab64        0x4 shell/lib.a(ash.o)
 .bss.line_input_state
                0x000cab68        0x4 shell/lib.a(ash.o)
 .bss.cmdedit_prompt
                0x000cab6c        0x4 shell/lib.a(ash.o)
 .bss.backgndpid
                0x000cab70        0x4 shell/lib.a(ash.o)
 .bss.job_warning
                0x000cab74        0x4 shell/lib.a(ash.o)
 .bss.jobctl    0x000cab78        0x4 shell/lib.a(ash.o)
 .bss.initialpgrp
                0x000cab7c        0x4 shell/lib.a(ash.o)
 .bss.jobtab    0x000cab80        0x4 shell/lib.a(ash.o)
 .bss.njobs     0x000cab84        0x4 shell/lib.a(ash.o)
 .bss.curjob    0x000cab88        0x4 shell/lib.a(ash.o)
 .bss.jobless   0x000cab8c        0x4 shell/lib.a(ash.o)
 .bss.cmdnextc  0x000cab90        0x4 shell/lib.a(ash.o)
 .bss.expdest   0x000cab94        0x4 shell/lib.a(ash.o)
 .bss.argbackq  0x000cab98        0x4 shell/lib.a(ash.o)
 .bss.ifsfirst  0x000cab9c       0x10 shell/lib.a(ash.o)
 .bss.ifslastp  0x000cabac        0x4 shell/lib.a(ash.o)
 .bss.exparg    0x000cabb0        0x8 shell/lib.a(ash.o)
 .bss.back_exitstatus
                0x000cabb8        0x4 shell/lib.a(ash.o)
 .bss.expdir    0x000cabbc        0x4 shell/lib.a(ash.o)
 .bss.cmdtable  0x000cabc0       0x7c shell/lib.a(ash.o)
 .bss.lastcmdentry
                0x000cac3c        0x4 shell/lib.a(ash.o)
 .bss.funcblocksize
                0x000cac40        0x4 shell/lib.a(ash.o)
 .bss.funcstringsize
                0x000cac44        0x4 shell/lib.a(ash.o)
 .bss.funcblock
                0x000cac48        0x4 shell/lib.a(ash.o)
 .bss.funcstring
                0x000cac4c        0x4 shell/lib.a(ash.o)
 .bss.evalskip  0x000cac50        0x4 shell/lib.a(ash.o)
 .bss.skipcount
                0x000cac54        0x4 shell/lib.a(ash.o)
 .bss.funcnest  0x000cac58        0x4 shell/lib.a(ash.o)
 .bss.loopnest  0x000cac5c        0x4 shell/lib.a(ash.o)
 .bss.localvars
                0x000cac60        0x4 shell/lib.a(ash.o)
 .bss.parsenleft
                0x000cac64        0x4 shell/lib.a(ash.o)
 .bss.parselleft
                0x000cac68        0x4 shell/lib.a(ash.o)
 .bss.parsenextc
                0x000cac6c        0x4 shell/lib.a(ash.o)
 .bss.checkkwd  0x000cac70        0x4 shell/lib.a(ash.o)
 .bss.tokpushback
                0x000cac74        0x4 shell/lib.a(ash.o)
 .bss.parsebackquote
                0x000cac78        0x4 shell/lib.a(ash.o)
 .bss.lasttoken
                0x000cac7c        0x4 shell/lib.a(ash.o)
 .bss.wordtext  0x000cac80        0x4 shell/lib.a(ash.o)
 .bss.backquotelist
                0x000cac84        0x4 shell/lib.a(ash.o)
 .bss.redirnode
                0x000cac88        0x4 shell/lib.a(ash.o)
 .bss.heredoc   0x000cac8c        0x4 shell/lib.a(ash.o)
 .bss.quoteflag
                0x000cac90        0x4 shell/lib.a(ash.o)
 .bss.heredoclist
                0x000cac94        0x4 shell/lib.a(ash.o)
 .bss.prev_chk_var_recursive
                0x000cac98        0x4 shell/lib.a(ash.o)
 .bss.shbuf     0x000cac9c        0x4 sysklogd/lib.a(logread.o)
 .bss.g_options
                0x000caca0        0x4 util-linux/lib.a(fbset.o)
 .bss.user_set_sector_size
                0x000caca4        0x4 util-linux/lib.a(fdisk.o)
 .bss.heads     0x000caca8        0x4 util-linux/lib.a(fdisk.o)
 .bss.sectors   0x000cacac        0x4 util-linux/lib.a(fdisk.o)
 .bss.cylinders
                0x000cacb0        0x4 util-linux/lib.a(fdisk.o)
 .bss.current_label_type
                0x000cacb4        0x4 util-linux/lib.a(fdisk.o)
 .bss.disk_device
                0x000cacb8        0x4 util-linux/lib.a(fdisk.o)
 .bss.fd        0x000cacbc        0x4 util-linux/lib.a(fdisk.o)
 .bss.ext_index
                0x000cacc0        0x4 util-linux/lib.a(fdisk.o)
 .bss.listing   0x000cacc4        0x4 util-linux/lib.a(fdisk.o)
 .bss.dos_changed
                0x000cacc8        0x4 util-linux/lib.a(fdisk.o)
 .bss.nowarn    0x000caccc        0x4 util-linux/lib.a(fdisk.o)
 .bss.user_cylinders
                0x000cacd0        0x4 util-linux/lib.a(fdisk.o)
 .bss.user_heads
                0x000cacd4        0x4 util-linux/lib.a(fdisk.o)
 .bss.user_sectors
                0x000cacd8        0x4 util-linux/lib.a(fdisk.o)
 .bss.pt_heads  0x000cacdc        0x4 util-linux/lib.a(fdisk.o)
 .bss.pt_sectors
                0x000cace0        0x4 util-linux/lib.a(fdisk.o)
 .bss.kern_heads
                0x000cace4        0x4 util-linux/lib.a(fdisk.o)
 .bss.kern_sectors
                0x000cace8        0x4 util-linux/lib.a(fdisk.o)
 .bss.extended_offset
                0x000cacec        0x8 util-linux/lib.a(fdisk.o)
 .bss.total_number_of_sectors
                0x000cacf4        0x8 util-linux/lib.a(fdisk.o)
 .bss.rtcname   0x000cacfc        0x4 util-linux/lib.a(hwclock.o)
 .bss.format    0x000cad00        0x1 util-linux/lib.a(ipcs.o)
 .bss.buf.3     0x000cad01       0x2e util-linux/lib.a(mount.o)
 *fill*         0x000cad2f        0x1 00
 .bss.nfs_mount_version
                0x000cad30        0x4 util-linux/lib.a(mount.o)
 .bss.kernel_version
                0x000cad34        0x4 util-linux/lib.a(mount.o)
 .bss.rootdev   0x000cad38        0x8 util-linux/lib.a(switch_root.o)
 .bss.passwd.0  0x000cad40        0x4 libbb/lib.a(bb_askpass.o)
 .bss.state     0x000cad44        0x4 libbb/lib.a(lineedit.o)
 .bss.initial_settings
                0x000cad48       0x3c libbb/lib.a(lineedit.o)
 .bss.new_settings
                0x000cad84       0x3c libbb/lib.a(lineedit.o)
 .bss.cmdedit_x
                0x000cadc0        0x4 libbb/lib.a(lineedit.o)
 .bss.cmdedit_y
                0x000cadc4        0x4 libbb/lib.a(lineedit.o)
 .bss.cmdedit_prmt_len
                0x000cadc8        0x4 libbb/lib.a(lineedit.o)
 .bss.cursor    0x000cadcc        0x4 libbb/lib.a(lineedit.o)
 .bss.command_len
                0x000cadd0        0x4 libbb/lib.a(lineedit.o)
 .bss.command_ps
                0x000cadd4        0x4 libbb/lib.a(lineedit.o)
 .bss.cmdedit_prompt
                0x000cadd8        0x4 libbb/lib.a(lineedit.o)
 .bss.matches   0x000caddc        0x4 libbb/lib.a(lineedit.o)
 .bss.num_matches
                0x000cade0        0x4 libbb/lib.a(lineedit.o)
 .bss.previous_SIGWINCH_handler
                0x000cade4        0x4 libbb/lib.a(lineedit.o)
 .bss.cipher.0  0x000cade8        0x4 libbb/lib.a(pw_encrypt.o)
 *(COMMON)
                0x000cadec                . = ALIGN (0x4)
                0x000cadec                . = ALIGN (0x4)
                0x000cadec                _end = .
                0x000cadec                _bss_end__ = .
                0x000cadec                __bss_end__ = .
                0x000cadec                __end__ = .
                0x000cadec                PROVIDE (end, .)
                0x000cadec                . = DATA_SEGMENT_END (.)

.stab
 *(.stab)

.stabstr
 *(.stabstr)

.stab.excl
 *(.stab.excl)

.stab.exclstr
 *(.stab.exclstr)

.stab.index
 *(.stab.index)

.stab.indexstr
 *(.stab.indexstr)

.comment        0x00000000     0x1c8c
 *(.comment)
 .comment       0x00000000       0x12 /home/zion/gcc_jz2440/arm-linux-gcc-3.4.5-glibc-2.3.6/bin/../lib/gcc/arm-linux/3.4.5/../../../../arm-linux/lib/crt1.o
 .comment       0x00000012       0x12 /home/zion/gcc_jz2440/arm-linux-gcc-3.4.5-glibc-2.3.6/bin/../lib/gcc/arm-linux/3.4.5/../../../../arm-linux/lib/crti.o
 .comment       0x00000024       0x12 /home/zion/gcc_jz2440/arm-linux-gcc-3.4.5-glibc-2.3.6/bin/../lib/gcc/arm-linux/3.4.5/crtbegin.o
 .comment       0x00000036       0x12 applets/built-in.o
 .comment       0x00000048       0x12 archival/lib.a(ar.o)
 .comment       0x0000005a       0x12 archival/lib.a(bbunzip.o)
 .comment       0x0000006c       0x12 archival/lib.a(cpio.o)
 .comment       0x0000007e       0x12 archival/lib.a(gzip.o)
 .comment       0x00000090       0x12 archival/lib.a(rpm.o)
 .comment       0x000000a2       0x12 archival/lib.a(rpm2cpio.o)
 .comment       0x000000b4       0x12 archival/lib.a(tar.o)
 .comment       0x000000c6       0x12 archival/lib.a(unzip.o)
 .comment       0x000000d8       0x12 archival/libunarchive/lib.a(check_header_gzip.o)
 .comment       0x000000ea       0x12 archival/libunarchive/lib.a(data_extract_all.o)
 .comment       0x000000fc       0x12 archival/libunarchive/lib.a(data_extract_to_stdout.o)
 .comment       0x0000010e       0x12 archival/libunarchive/lib.a(data_skip.o)
 .comment       0x00000120       0x12 archival/libunarchive/lib.a(decompress_bunzip2.o)
 .comment       0x00000132       0x12 archival/libunarchive/lib.a(decompress_uncompress.o)
 .comment       0x00000144       0x12 archival/libunarchive/lib.a(decompress_unlzma.o)
 .comment       0x00000156       0x12 archival/libunarchive/lib.a(decompress_unzip.o)
 .comment       0x00000168       0x12 archival/libunarchive/lib.a(filter_accept_list.o)
 .comment       0x0000017a       0x12 archival/libunarchive/lib.a(filter_accept_reject_list.o)
 .comment       0x0000018c       0x12 archival/libunarchive/lib.a(find_list_entry.o)
 .comment       0x0000019e       0x12 archival/libunarchive/lib.a(get_header_ar.o)
 .comment       0x000001b0       0x12 archival/libunarchive/lib.a(get_header_cpio.o)
 .comment       0x000001c2       0x12 archival/libunarchive/lib.a(get_header_tar.o)
 .comment       0x000001d4       0x12 archival/libunarchive/lib.a(get_header_tar_bz2.o)
 .comment       0x000001e6       0x12 archival/libunarchive/lib.a(get_header_tar_gz.o)
 .comment       0x000001f8       0x12 archival/libunarchive/lib.a(get_header_tar_lzma.o)
 .comment       0x0000020a       0x12 archival/libunarchive/lib.a(header_list.o)
 .comment       0x0000021c       0x12 archival/libunarchive/lib.a(header_verbose_list.o)
 .comment       0x0000022e       0x12 archival/libunarchive/lib.a(init_handle.o)
 .comment       0x00000240       0x12 archival/libunarchive/lib.a(open_transformer.o)
 .comment       0x00000252       0x12 archival/libunarchive/lib.a(seek_by_jump.o)
 .comment       0x00000264       0x12 archival/libunarchive/lib.a(seek_by_read.o)
 .comment       0x00000276       0x12 archival/libunarchive/lib.a(archive_xread_all_eof.o)
 .comment       0x00000288       0x12 archival/libunarchive/lib.a(data_align.o)
 .comment       0x0000029a       0x12 archival/libunarchive/lib.a(filter_accept_all.o)
 .comment       0x000002ac       0x12 archival/libunarchive/lib.a(header_skip.o)
 .comment       0x000002be       0x12 console-tools/lib.a(chvt.o)
 .comment       0x000002d0       0x12 console-tools/lib.a(clear.o)
 .comment       0x000002e2       0x12 console-tools/lib.a(deallocvt.o)
 .comment       0x000002f4       0x12 console-tools/lib.a(dumpkmap.o)
 .comment       0x00000306       0x12 console-tools/lib.a(loadfont.o)
 .comment       0x00000318       0x12 console-tools/lib.a(loadkmap.o)
 .comment       0x0000032a       0x12 console-tools/lib.a(openvt.o)
 .comment       0x0000033c       0x12 console-tools/lib.a(reset.o)
 .comment       0x0000034e       0x12 console-tools/lib.a(resize.o)
 .comment       0x00000360       0x12 console-tools/lib.a(setconsole.o)
 .comment       0x00000372       0x12 console-tools/lib.a(setkeycodes.o)
 .comment       0x00000384       0x12 console-tools/lib.a(setlogcons.o)
 .comment       0x00000396       0x12 coreutils/lib.a(basename.o)
 .comment       0x000003a8       0x12 coreutils/lib.a(cal.o)
 .comment       0x000003ba       0x12 coreutils/lib.a(cat.o)
 .comment       0x000003cc       0x12 coreutils/lib.a(catv.o)
 .comment       0x000003de       0x12 coreutils/lib.a(chgrp.o)
 .comment       0x000003f0       0x12 coreutils/lib.a(chmod.o)
 .comment       0x00000402       0x12 coreutils/lib.a(chown.o)
 .comment       0x00000414       0x12 coreutils/lib.a(chroot.o)
 .comment       0x00000426       0x12 coreutils/lib.a(cksum.o)
 .comment       0x00000438       0x12 coreutils/lib.a(comm.o)
 .comment       0x0000044a       0x12 coreutils/lib.a(cp.o)
 .comment       0x0000045c       0x12 coreutils/lib.a(cut.o)
 .comment       0x0000046e       0x12 coreutils/lib.a(date.o)
 .comment       0x00000480       0x12 coreutils/lib.a(dd.o)
 .comment       0x00000492       0x12 coreutils/lib.a(df.o)
 .comment       0x000004a4       0x12 coreutils/lib.a(dirname.o)
 .comment       0x000004b6       0x12 coreutils/lib.a(dos2unix.o)
 .comment       0x000004c8       0x12 coreutils/lib.a(du.o)
 .comment       0x000004da       0x12 coreutils/lib.a(echo.o)
 .comment       0x000004ec       0x12 coreutils/lib.a(env.o)
 .comment       0x000004fe       0x12 coreutils/lib.a(expand.o)
 .comment       0x00000510       0x12 coreutils/lib.a(expr.o)
 .comment       0x00000522       0x12 coreutils/lib.a(false.o)
 .comment       0x00000534       0x12 coreutils/lib.a(fold.o)
 .comment       0x00000546       0x12 coreutils/lib.a(head.o)
 .comment       0x00000558       0x12 coreutils/lib.a(hostid.o)
 .comment       0x0000056a       0x12 coreutils/lib.a(id.o)
 .comment       0x0000057c       0x12 coreutils/lib.a(install.o)
 .comment       0x0000058e       0x12 coreutils/lib.a(length.o)
 .comment       0x000005a0       0x12 coreutils/lib.a(ln.o)
 .comment       0x000005b2       0x12 coreutils/lib.a(logname.o)
 .comment       0x000005c4       0x12 coreutils/lib.a(ls.o)
 .comment       0x000005d6       0x12 coreutils/lib.a(md5_sha1_sum.o)
 .comment       0x000005e8       0x12 coreutils/lib.a(mkdir.o)
 .comment       0x000005fa       0x12 coreutils/lib.a(mkfifo.o)
 .comment       0x0000060c       0x12 coreutils/lib.a(mknod.o)
 .comment       0x0000061e       0x12 coreutils/lib.a(mv.o)
 .comment       0x00000630       0x12 coreutils/lib.a(nice.o)
 .comment       0x00000642       0x12 coreutils/lib.a(nohup.o)
 .comment       0x00000654       0x12 coreutils/lib.a(od.o)
 .comment       0x00000666       0x12 coreutils/lib.a(printenv.o)
 .comment       0x00000678       0x12 coreutils/lib.a(printf.o)
 .comment       0x0000068a       0x12 coreutils/lib.a(pwd.o)
 .comment       0x0000069c       0x12 coreutils/lib.a(readlink.o)
 .comment       0x000006ae       0x12 coreutils/lib.a(realpath.o)
 .comment       0x000006c0       0x12 coreutils/lib.a(rm.o)
 .comment       0x000006d2       0x12 coreutils/lib.a(rmdir.o)
 .comment       0x000006e4       0x12 coreutils/lib.a(seq.o)
 .comment       0x000006f6       0x12 coreutils/lib.a(sleep.o)
 .comment       0x00000708       0x12 coreutils/lib.a(sort.o)
 .comment       0x0000071a       0x12 coreutils/lib.a(split.o)
 .comment       0x0000072c       0x12 coreutils/lib.a(stat.o)
 .comment       0x0000073e       0x12 coreutils/lib.a(stty.o)
 .comment       0x00000750       0x12 coreutils/lib.a(sum.o)
 .comment       0x00000762       0x12 coreutils/lib.a(sync.o)
 .comment       0x00000774       0x12 coreutils/lib.a(tail.o)
 .comment       0x00000786       0x12 coreutils/lib.a(tee.o)
 .comment       0x00000798       0x12 coreutils/lib.a(test.o)
 .comment       0x000007aa       0x12 coreutils/lib.a(touch.o)
 .comment       0x000007bc       0x12 coreutils/lib.a(tr.o)
 .comment       0x000007ce       0x12 coreutils/lib.a(true.o)
 .comment       0x000007e0       0x12 coreutils/lib.a(tty.o)
 .comment       0x000007f2       0x12 coreutils/lib.a(uname.o)
 .comment       0x00000804       0x12 coreutils/lib.a(uniq.o)
 .comment       0x00000816       0x12 coreutils/lib.a(usleep.o)
 .comment       0x00000828       0x12 coreutils/lib.a(uudecode.o)
 .comment       0x0000083a       0x12 coreutils/lib.a(uuencode.o)
 .comment       0x0000084c       0x12 coreutils/lib.a(wc.o)
 .comment       0x0000085e       0x12 coreutils/lib.a(who.o)
 .comment       0x00000870       0x12 coreutils/lib.a(whoami.o)
 .comment       0x00000882       0x12 coreutils/lib.a(yes.o)
 .comment       0x00000894       0x12 coreutils/libcoreutils/lib.a(cp_mv_stat.o)
 .comment       0x000008a6       0x12 coreutils/libcoreutils/lib.a(getopt_mk_fifo_nod.o)
 .comment       0x000008b8       0x12 debianutils/lib.a(mktemp.o)
 .comment       0x000008ca       0x12 debianutils/lib.a(pipe_progress.o)
 .comment       0x000008dc       0x12 debianutils/lib.a(run_parts.o)
 .comment       0x000008ee       0x12 debianutils/lib.a(start_stop_daemon.o)
 .comment       0x00000900       0x12 debianutils/lib.a(which.o)
 .comment       0x00000912       0x12 e2fsprogs/lib.a(chattr.o)
 .comment       0x00000924       0x12 e2fsprogs/lib.a(e2fs_lib.o)
 .comment       0x00000936       0x12 e2fsprogs/lib.a(fsck.o)
 .comment       0x00000948       0x12 e2fsprogs/lib.a(lsattr.o)
 .comment       0x0000095a       0x12 editors/lib.a(awk.o)
 .comment       0x0000096c       0x12 editors/lib.a(cmp.o)
 .comment       0x0000097e       0x12 editors/lib.a(diff.o)
 .comment       0x00000990       0x12 editors/lib.a(ed.o)
 .comment       0x000009a2       0x12 editors/lib.a(patch.o)
 .comment       0x000009b4       0x12 editors/lib.a(sed.o)
 .comment       0x000009c6       0x12 editors/lib.a(vi.o)
 .comment       0x000009d8       0x12 findutils/lib.a(find.o)
 .comment       0x000009ea       0x12 findutils/lib.a(grep.o)
 .comment       0x000009fc       0x12 findutils/lib.a(xargs.o)
 .comment       0x00000a0e       0x12 init/lib.a(halt.o)
 .comment       0x00000a20       0x12 init/lib.a(init.o)
 .comment       0x00000a32       0x12 init/lib.a(mesg.o)
 .comment       0x00000a44       0x12 ipsvd/lib.a(tcpudp.o)
 .comment       0x00000a56       0x12 ipsvd/lib.a(ipsvd_perhost.o)
 .comment       0x00000a68       0x12 libbb/lib.a(ask_confirmation.o)
 .comment       0x00000a7a       0x12 libbb/lib.a(bb_basename.o)
 .comment       0x00000a8c       0x12 libbb/lib.a(bb_pwd.o)
 .comment       0x00000a9e       0x12 libbb/lib.a(bb_strtonum.o)
 .comment       0x00000ab0       0x12 libbb/lib.a(chomp.o)
 .comment       0x00000ac2       0x12 libbb/lib.a(compare_string_array.o)
 .comment       0x00000ad4       0x12 libbb/lib.a(concat_path_file.o)
 .comment       0x00000ae6       0x12 libbb/lib.a(concat_subpath_file.o)
 .comment       0x00000af8       0x12 libbb/lib.a(copy_file.o)
 .comment       0x00000b0a       0x12 libbb/lib.a(copyfd.o)
 .comment       0x00000b1c       0x12 libbb/lib.a(crc32.o)
 .comment       0x00000b2e       0x12 libbb/lib.a(default_error_retval.o)
 .comment       0x00000b40       0x12 libbb/lib.a(device_open.o)
 .comment       0x00000b52       0x12 libbb/lib.a(dump.o)
 .comment       0x00000b64       0x12 libbb/lib.a(error_msg.o)
 .comment       0x00000b76       0x12 libbb/lib.a(error_msg_and_die.o)
 .comment       0x00000b88       0x12 libbb/lib.a(execable.o)
 .comment       0x00000b9a       0x12 libbb/lib.a(fclose_nonstdin.o)
 .comment       0x00000bac       0x12 libbb/lib.a(fflush_stdout_and_exit.o)
 .comment       0x00000bbe       0x12 libbb/lib.a(find_mount_point.o)
 .comment       0x00000bd0       0x12 libbb/lib.a(find_pid_by_name.o)
 .comment       0x00000be2       0x12 libbb/lib.a(find_root_device.o)
 .comment       0x00000bf4       0x12 libbb/lib.a(full_write.o)
 .comment       0x00000c06       0x12 libbb/lib.a(get_console.o)
 .comment       0x00000c18       0x12 libbb/lib.a(get_last_path_component.o)
 .comment       0x00000c2a       0x12 libbb/lib.a(get_line_from_file.o)
 .comment       0x00000c3c       0x12 libbb/lib.a(getopt32.o)
 .comment       0x00000c4e       0x12 libbb/lib.a(human_readable.o)
 .comment       0x00000c60       0x12 libbb/lib.a(info_msg.o)
 .comment       0x00000c72       0x12 libbb/lib.a(inode_hash.o)
 .comment       0x00000c84       0x12 libbb/lib.a(isdirectory.o)
 .comment       0x00000c96       0x12 libbb/lib.a(last_char_is.o)
 .comment       0x00000ca8       0x12 libbb/lib.a(llist.o)
 .comment       0x00000cba       0x12 libbb/lib.a(make_directory.o)
 .comment       0x00000ccc       0x12 libbb/lib.a(makedev.o)
 .comment       0x00000cde       0x12 libbb/lib.a(md5.o)
 .comment       0x00000cf0       0x12 libbb/lib.a(messages.o)
 .comment       0x00000d02       0x12 libbb/lib.a(mode_string.o)
 .comment       0x00000d14       0x12 libbb/lib.a(mtab_file.o)
 .comment       0x00000d26       0x12 libbb/lib.a(parse_mode.o)
 .comment       0x00000d38       0x12 libbb/lib.a(perror_msg.o)
 .comment       0x00000d4a       0x12 libbb/lib.a(perror_msg_and_die.o)
 .comment       0x00000d5c       0x12 libbb/lib.a(perror_nomsg.o)
 .comment       0x00000d6e       0x12 libbb/lib.a(perror_nomsg_and_die.o)
 .comment       0x00000d80       0x12 libbb/lib.a(pidfile.o)
 .comment       0x00000d92       0x12 libbb/lib.a(process_escape_sequence.o)
 .comment       0x00000da4       0x12 libbb/lib.a(procps.o)
 .comment       0x00000db6       0x12 libbb/lib.a(read.o)
 .comment       0x00000dc8       0x12 libbb/lib.a(recursive_action.o)
 .comment       0x00000dda       0x12 libbb/lib.a(remove_file.o)
 .comment       0x00000dec       0x12 libbb/lib.a(safe_strncpy.o)
 .comment       0x00000dfe       0x12 libbb/lib.a(safe_write.o)
 .comment       0x00000e10       0x12 libbb/lib.a(sha1.o)
 .comment       0x00000e22       0x12 libbb/lib.a(skip_whitespace.o)
 .comment       0x00000e34       0x12 libbb/lib.a(speed_table.o)
 .comment       0x00000e46       0x12 libbb/lib.a(u_signal_names.o)
 .comment       0x00000e58       0x12 libbb/lib.a(udp_io.o)
 .comment       0x00000e6a       0x12 libbb/lib.a(uuencode.o)
 .comment       0x00000e7c       0x12 libbb/lib.a(verror_msg.o)
 .comment       0x00000e8e       0x12 libbb/lib.a(vfork_daemon_rexec.o)
 .comment       0x00000ea0       0x12 libbb/lib.a(warn_ignoring_args.o)
 .comment       0x00000eb2       0x12 libbb/lib.a(wfopen.o)
 .comment       0x00000ec4       0x12 libbb/lib.a(wfopen_input.o)
 .comment       0x00000ed6       0x12 libbb/lib.a(xatonum.o)
 .comment       0x00000ee8       0x12 libbb/lib.a(xconnect.o)
 .comment       0x00000efa       0x12 libbb/lib.a(xfuncs.o)
 .comment       0x00000f0c       0x12 libbb/lib.a(xgetcwd.o)
 .comment       0x00000f1e       0x12 libbb/lib.a(xreadlink.o)
 .comment       0x00000f30       0x12 libbb/lib.a(xregcomp.o)
 .comment       0x00000f42       0x12 libpwdgrp/lib.a(pwd_grp.o)
 .comment       0x00000f54       0x12 libpwdgrp/lib.a(uidgid_get.o)
 .comment       0x00000f66       0x12 loginutils/lib.a(addgroup.o)
 .comment       0x00000f78       0x12 loginutils/lib.a(adduser.o)
 .comment       0x00000f8a       0x12 loginutils/lib.a(chpasswd.o)
 .comment       0x00000f9c       0x12 loginutils/lib.a(cryptpw.o)
 .comment       0x00000fae       0x12 loginutils/lib.a(deluser.o)
 .comment       0x00000fc0       0x12 loginutils/lib.a(getty.o)
 .comment       0x00000fd2       0x12 loginutils/lib.a(login.o)
 .comment       0x00000fe4       0x12 loginutils/lib.a(passwd.o)
 .comment       0x00000ff6       0x12 loginutils/lib.a(su.o)
 .comment       0x00001008       0x12 loginutils/lib.a(sulogin.o)
 .comment       0x0000101a       0x12 loginutils/lib.a(vlock.o)
 .comment       0x0000102c       0x12 miscutils/lib.a(adjtimex.o)
 .comment       0x0000103e       0x12 miscutils/lib.a(chrt.o)
 .comment       0x00001050       0x12 miscutils/lib.a(crond.o)
 .comment       0x00001062       0x12 miscutils/lib.a(crontab.o)
 .comment       0x00001074       0x12 miscutils/lib.a(dc.o)
 .comment       0x00001086       0x12 miscutils/lib.a(eject.o)
 .comment       0x00001098       0x12 miscutils/lib.a(hdparm.o)
 .comment       0x000010aa       0x12 miscutils/lib.a(last.o)
 .comment       0x000010bc       0x12 miscutils/lib.a(less.o)
 .comment       0x000010ce       0x12 miscutils/lib.a(makedevs.o)
 .comment       0x000010e0       0x12 miscutils/lib.a(mountpoint.o)
 .comment       0x000010f2       0x12 miscutils/lib.a(mt.o)
 .comment       0x00001104       0x12 miscutils/lib.a(raidautorun.o)
 .comment       0x00001116       0x12 miscutils/lib.a(readahead.o)
 .comment       0x00001128       0x12 miscutils/lib.a(runlevel.o)
 .comment       0x0000113a       0x12 miscutils/lib.a(rx.o)
 .comment       0x0000114c       0x12 miscutils/lib.a(setsid.o)
 .comment       0x0000115e       0x12 miscutils/lib.a(strings.o)
 .comment       0x00001170       0x12 miscutils/lib.a(taskset.o)
 .comment       0x00001182       0x12 miscutils/lib.a(time.o)
 .comment       0x00001194       0x12 miscutils/lib.a(ttysize.o)
 .comment       0x000011a6       0x12 miscutils/lib.a(watchdog.o)
 .comment       0x000011b8       0x12 modutils/lib.a(insmod.o)
 .comment       0x000011ca       0x12 modutils/lib.a(lsmod.o)
 .comment       0x000011dc       0x12 modutils/lib.a(modprobe.o)
 .comment       0x000011ee       0x12 modutils/lib.a(rmmod.o)
 .comment       0x00001200       0x12 networking/lib.a(arp.o)
 .comment       0x00001212       0x12 networking/lib.a(arping.o)
 .comment       0x00001224       0x12 networking/lib.a(dnsd.o)
 .comment       0x00001236       0x12 networking/lib.a(ether-wake.o)
 .comment       0x00001248       0x12 networking/lib.a(ftpgetput.o)
 .comment       0x0000125a       0x12 networking/lib.a(hostname.o)
 .comment       0x0000126c       0x12 networking/lib.a(httpd.o)
 .comment       0x0000127e       0x12 networking/lib.a(ifconfig.o)
 .comment       0x00001290       0x12 networking/lib.a(ifupdown.o)
 .comment       0x000012a2       0x12 networking/lib.a(inetd.o)
 .comment       0x000012b4       0x12 networking/lib.a(interface.o)
 .comment       0x000012c6       0x12 networking/lib.a(ip.o)
 .comment       0x000012d8       0x12 networking/lib.a(ipcalc.o)
 .comment       0x000012ea       0x12 networking/lib.a(isrv_identd.o)
 .comment       0x000012fc       0x12 networking/lib.a(nameif.o)
 .comment       0x0000130e       0x12 networking/lib.a(nc.o)
 .comment       0x00001320       0x12 networking/lib.a(netstat.o)
 .comment       0x00001332       0x12 networking/lib.a(nslookup.o)
 .comment       0x00001344       0x12 networking/lib.a(ping.o)
 .comment       0x00001356       0x12 networking/lib.a(pscan.o)
 .comment       0x00001368       0x12 networking/lib.a(route.o)
 .comment       0x0000137a       0x12 networking/lib.a(slattach.o)
 .comment       0x0000138c       0x12 networking/lib.a(telnet.o)
 .comment       0x0000139e       0x12 networking/lib.a(telnetd.o)
 .comment       0x000013b0       0x12 networking/lib.a(tftp.o)
 .comment       0x000013c2       0x12 networking/lib.a(traceroute.o)
 .comment       0x000013d4       0x12 networking/lib.a(vconfig.o)
 .comment       0x000013e6       0x12 networking/lib.a(wget.o)
 .comment       0x000013f8       0x12 networking/lib.a(zcip.o)
 .comment       0x0000140a       0x12 networking/lib.a(isrv.o)
 .comment       0x0000141c       0x12 networking/libiproute/lib.a(ip_parse_common_args.o)
 .comment       0x0000142e       0x12 networking/libiproute/lib.a(ipaddress.o)
 .comment       0x00001440       0x12 networking/libiproute/lib.a(iplink.o)
 .comment       0x00001452       0x12 networking/libiproute/lib.a(iproute.o)
 .comment       0x00001464       0x12 networking/libiproute/lib.a(iprule.o)
 .comment       0x00001476       0x12 networking/libiproute/lib.a(iptunnel.o)
 .comment       0x00001488       0x12 networking/libiproute/lib.a(libnetlink.o)
 .comment       0x0000149a       0x12 networking/libiproute/lib.a(ll_addr.o)
 .comment       0x000014ac       0x12 networking/libiproute/lib.a(ll_map.o)
 .comment       0x000014be       0x12 networking/libiproute/lib.a(ll_types.o)
 .comment       0x000014d0       0x12 networking/libiproute/lib.a(rt_names.o)
 .comment       0x000014e2       0x12 networking/libiproute/lib.a(rtm_map.o)
 .comment       0x000014f4       0x12 networking/libiproute/lib.a(utils.o)
 .comment       0x00001506       0x12 networking/udhcp/lib.a(dhcpc.o)
 .comment       0x00001518       0x12 networking/udhcp/lib.a(dhcpd.o)
 .comment       0x0000152a       0x12 networking/udhcp/lib.a(dhcprelay.o)
 .comment       0x0000153c       0x12 networking/udhcp/lib.a(dumpleases.o)
 .comment       0x0000154e       0x12 networking/udhcp/lib.a(files.o)
 .comment       0x00001560       0x12 networking/udhcp/lib.a(leases.o)
 .comment       0x00001572       0x12 networking/udhcp/lib.a(options.o)
 .comment       0x00001584       0x12 networking/udhcp/lib.a(packet.o)
 .comment       0x00001596       0x12 networking/udhcp/lib.a(script.o)
 .comment       0x000015a8       0x12 networking/udhcp/lib.a(serverpacket.o)
 .comment       0x000015ba       0x12 networking/udhcp/lib.a(signalpipe.o)
 .comment       0x000015cc       0x12 networking/udhcp/lib.a(socket.o)
 .comment       0x000015de       0x12 networking/udhcp/lib.a(static_leases.o)
 .comment       0x000015f0       0x12 networking/udhcp/lib.a(arpping.o)
 .comment       0x00001602       0x12 networking/udhcp/lib.a(clientpacket.o)
 .comment       0x00001614       0x12 networking/udhcp/lib.a(clientsocket.o)
 .comment       0x00001626       0x12 networking/udhcp/lib.a(common.o)
 .comment       0x00001638       0x12 networking/udhcp/lib.a(domain_codec.o)
 .comment       0x0000164a       0x12 procps/lib.a(free.o)
 .comment       0x0000165c       0x12 procps/lib.a(fuser.o)
 .comment       0x0000166e       0x12 procps/lib.a(kill.o)
 .comment       0x00001680       0x12 procps/lib.a(nmeter.o)
 .comment       0x00001692       0x12 procps/lib.a(pidof.o)
 .comment       0x000016a4       0x12 procps/lib.a(ps.o)
 .comment       0x000016b6       0x12 procps/lib.a(renice.o)
 .comment       0x000016c8       0x12 procps/lib.a(sysctl.o)
 .comment       0x000016da       0x12 procps/lib.a(top.o)
 .comment       0x000016ec       0x12 procps/lib.a(uptime.o)
 .comment       0x000016fe       0x12 procps/lib.a(watch.o)
 .comment       0x00001710       0x12 runit/lib.a(chpst.o)
 .comment       0x00001722       0x12 runit/lib.a(runsv.o)
 .comment       0x00001734       0x12 runit/lib.a(runsvdir.o)
 .comment       0x00001746       0x12 runit/lib.a(sv.o)
 .comment       0x00001758       0x12 runit/lib.a(svlogd.o)
 .comment       0x0000176a       0x12 runit/lib.a(runit_lib.o)
 .comment       0x0000177c       0x12 shell/lib.a(ash.o)
 .comment       0x0000178e       0x12 sysklogd/lib.a(klogd.o)
 .comment       0x000017a0       0x12 sysklogd/lib.a(logger.o)
 .comment       0x000017b2       0x12 sysklogd/lib.a(logread.o)
 .comment       0x000017c4       0x12 sysklogd/lib.a(syslogd.o)
 .comment       0x000017d6       0x12 util-linux/lib.a(dmesg.o)
 .comment       0x000017e8       0x12 util-linux/lib.a(fbset.o)
 .comment       0x000017fa       0x12 util-linux/lib.a(fdformat.o)
 .comment       0x0000180c       0x12 util-linux/lib.a(fdisk.o)
 .comment       0x0000181e       0x12 util-linux/lib.a(freeramdisk.o)
 .comment       0x00001830       0x12 util-linux/lib.a(fsck_minix.o)
 .comment       0x00001842       0x12 util-linux/lib.a(getopt.o)
 .comment       0x00001854       0x12 util-linux/lib.a(hexdump.o)
 .comment       0x00001866       0x12 util-linux/lib.a(hwclock.o)
 .comment       0x00001878       0x12 util-linux/lib.a(ipcrm.o)
 .comment       0x0000188a       0x12 util-linux/lib.a(ipcs.o)
 .comment       0x0000189c       0x12 util-linux/lib.a(losetup.o)
 .comment       0x000018ae       0x12 util-linux/lib.a(mdev.o)
 .comment       0x000018c0       0x12 util-linux/lib.a(mkfs_minix.o)
 .comment       0x000018d2       0x12 util-linux/lib.a(mkswap.o)
 .comment       0x000018e4       0x12 util-linux/lib.a(more.o)
 .comment       0x000018f6       0x12 util-linux/lib.a(mount.o)
 .comment       0x00001908       0x12 util-linux/lib.a(pivot_root.o)
 .comment       0x0000191a       0x12 util-linux/lib.a(rdate.o)
 .comment       0x0000192c       0x12 util-linux/lib.a(readprofile.o)
 .comment       0x0000193e       0x12 util-linux/lib.a(setarch.o)
 .comment       0x00001950       0x12 util-linux/lib.a(swaponoff.o)
 .comment       0x00001962       0x12 util-linux/lib.a(switch_root.o)
 .comment       0x00001974       0x12 util-linux/lib.a(umount.o)
 .comment       0x00001986       0x12 libbb/lib.a(bb_askpass.o)
 .comment       0x00001998       0x12 libbb/lib.a(bb_do_delay.o)
 .comment       0x000019aa       0x12 libbb/lib.a(change_identity.o)
 .comment       0x000019bc       0x12 libbb/lib.a(correct_password.o)
 .comment       0x000019ce       0x12 libbb/lib.a(create_icmp6_socket.o)
 .comment       0x000019e0       0x12 libbb/lib.a(create_icmp_socket.o)
 .comment       0x000019f2       0x12 libbb/lib.a(crypt_make_salt.o)
 .comment       0x00001a04       0x12 libbb/lib.a(herror_msg.o)
 .comment       0x00001a16       0x12 libbb/lib.a(herror_msg_and_die.o)
 .comment       0x00001a28       0x12 libbb/lib.a(inet_common.o)
 .comment       0x00001a3a       0x12 libbb/lib.a(kernel_version.o)
 .comment       0x00001a4c       0x12 libbb/lib.a(lineedit.o)
 .comment       0x00001a5e       0x12 libbb/lib.a(login.o)
 .comment       0x00001a70       0x12 libbb/lib.a(loop.o)
 .comment       0x00001a82       0x12 libbb/lib.a(match_fstype.o)
 .comment       0x00001a94       0x12 libbb/lib.a(obscure.o)
 .comment       0x00001aa6       0x12 libbb/lib.a(pw_encrypt.o)
 .comment       0x00001ab8       0x12 libbb/lib.a(restricted_shell.o)
 .comment       0x00001aca       0x12 libbb/lib.a(run_shell.o)
 .comment       0x00001adc       0x12 libbb/lib.a(setup_environment.o)
 .comment       0x00001aee       0x12 libbb/lib.a(simplify_path.o)
 .comment       0x00001b00       0x12 libbb/lib.a(str_tolower.o)
 .comment       0x00001b12       0x12 libbb/lib.a(time.o)
 .comment       0x00001b24       0x12 libbb/lib.a(trim.o)
 .comment       0x00001b36       0x12 libbb/lib.a(update_passwd.o)
 .comment       0x00001b48       0x12 libbb/lib.a(xgethostbyname.o)
 .comment       0x00001b5a       0x12 /home/zion/gcc_jz2440/arm-linux-gcc-3.4.5-glibc-2.3.6/bin/../lib/gcc/arm-linux/3.4.5/libgcc.a(_muldi3.oS)
 .comment       0x00001b6c       0x12 /home/zion/gcc_jz2440/arm-linux-gcc-3.4.5-glibc-2.3.6/bin/../lib/gcc/arm-linux/3.4.5/libgcc.a(_lshrdi3.oS)
 .comment       0x00001b7e       0x12 /home/zion/gcc_jz2440/arm-linux-gcc-3.4.5-glibc-2.3.6/bin/../lib/gcc/arm-linux/3.4.5/libgcc.a(_ashldi3.oS)
 .comment       0x00001b90       0x12 /home/zion/gcc_jz2440/arm-linux-gcc-3.4.5-glibc-2.3.6/bin/../lib/gcc/arm-linux/3.4.5/libgcc.a(_ashrdi3.oS)
 .comment       0x00001ba2       0x12 /home/zion/gcc_jz2440/arm-linux-gcc-3.4.5-glibc-2.3.6/bin/../lib/gcc/arm-linux/3.4.5/libgcc.a(_cmpdi2.oS)
 .comment       0x00001bb4       0x12 /home/zion/gcc_jz2440/arm-linux-gcc-3.4.5-glibc-2.3.6/bin/../lib/gcc/arm-linux/3.4.5/libgcc.a(_floatdidf.oS)
 .comment       0x00001bc6       0x12 /home/zion/gcc_jz2440/arm-linux-gcc-3.4.5-glibc-2.3.6/bin/../lib/gcc/arm-linux/3.4.5/libgcc.a(_divdi3.oS)
 .comment       0x00001bd8       0x12 /home/zion/gcc_jz2440/arm-linux-gcc-3.4.5-glibc-2.3.6/bin/../lib/gcc/arm-linux/3.4.5/libgcc.a(_moddi3.oS)
 .comment       0x00001bea       0x12 /home/zion/gcc_jz2440/arm-linux-gcc-3.4.5-glibc-2.3.6/bin/../lib/gcc/arm-linux/3.4.5/libgcc.a(_udivdi3.oS)
 .comment       0x00001bfc       0x12 /home/zion/gcc_jz2440/arm-linux-gcc-3.4.5-glibc-2.3.6/bin/../lib/gcc/arm-linux/3.4.5/libgcc.a(_umoddi3.oS)
 .comment       0x00001c0e       0x12 /home/zion/gcc_jz2440/arm-linux-gcc-3.4.5-glibc-2.3.6/bin/../lib/gcc/arm-linux/3.4.5/libgcc.a(_clz.oS)
 .comment       0x00001c20       0x12 /home/zion/gcc_jz2440/arm-linux-gcc-3.4.5-glibc-2.3.6/bin/../lib/gcc/arm-linux/3.4.5/../../../../arm-linux/lib/libc_nonshared.a(elf-init.oST)
 .comment       0x00001c32       0x12 /home/zion/gcc_jz2440/arm-linux-gcc-3.4.5-glibc-2.3.6/bin/../lib/gcc/arm-linux/3.4.5/../../../../arm-linux/lib/libc_nonshared.a(atexit.oST)
 .comment       0x00001c44       0x12 /home/zion/gcc_jz2440/arm-linux-gcc-3.4.5-glibc-2.3.6/bin/../lib/gcc/arm-linux/3.4.5/../../../../arm-linux/lib/libc_nonshared.a(stat64.oST)
 .comment       0x00001c56       0x12 /home/zion/gcc_jz2440/arm-linux-gcc-3.4.5-glibc-2.3.6/bin/../lib/gcc/arm-linux/3.4.5/../../../../arm-linux/lib/libc_nonshared.a(lstat64.oST)
 .comment       0x00001c68       0x12 /home/zion/gcc_jz2440/arm-linux-gcc-3.4.5-glibc-2.3.6/bin/../lib/gcc/arm-linux/3.4.5/crtend.o
 .comment       0x00001c7a       0x12 /home/zion/gcc_jz2440/arm-linux-gcc-3.4.5-glibc-2.3.6/bin/../lib/gcc/arm-linux/3.4.5/../../../../arm-linux/lib/crtn.o

.debug
 *(.debug)

.line
 *(.line)

.debug_srcinfo
 *(.debug_srcinfo)

.debug_sfnames
 *(.debug_sfnames)

.debug_aranges  0x00000000      0x1d8
 *(.debug_aranges)
 .debug_aranges
                0x00000000       0x30 /home/zion/gcc_jz2440/arm-linux-gcc-3.4.5-glibc-2.3.6/bin/../lib/gcc/arm-linux/3.4.5/../../../../arm-linux/lib/crti.o
 .debug_aranges
                0x00000030       0x20 /home/zion/gcc_jz2440/arm-linux-gcc-3.4.5-glibc-2.3.6/bin/../lib/gcc/arm-linux/3.4.5/libgcc.a(_udivsi3.oS)
 .debug_aranges
                0x00000050       0x20 /home/zion/gcc_jz2440/arm-linux-gcc-3.4.5-glibc-2.3.6/bin/../lib/gcc/arm-linux/3.4.5/libgcc.a(_divsi3.oS)
 .debug_aranges
                0x00000070       0x20 /home/zion/gcc_jz2440/arm-linux-gcc-3.4.5-glibc-2.3.6/bin/../lib/gcc/arm-linux/3.4.5/libgcc.a(_umodsi3.oS)
 .debug_aranges
                0x00000090       0x20 /home/zion/gcc_jz2440/arm-linux-gcc-3.4.5-glibc-2.3.6/bin/../lib/gcc/arm-linux/3.4.5/libgcc.a(_modsi3.oS)
 .debug_aranges
                0x000000b0       0x20 /home/zion/gcc_jz2440/arm-linux-gcc-3.4.5-glibc-2.3.6/bin/../lib/gcc/arm-linux/3.4.5/libgcc.a(_dvmd_lnx.oS)
 .debug_aranges
                0x000000d0       0x20 /home/zion/gcc_jz2440/arm-linux-gcc-3.4.5-glibc-2.3.6/bin/../lib/gcc/arm-linux/3.4.5/libgcc.a(_addsubdf3.oS)
 .debug_aranges
                0x000000f0       0x20 /home/zion/gcc_jz2440/arm-linux-gcc-3.4.5-glibc-2.3.6/bin/../lib/gcc/arm-linux/3.4.5/libgcc.a(_muldivdf3.oS)
 .debug_aranges
                0x00000110       0x20 /home/zion/gcc_jz2440/arm-linux-gcc-3.4.5-glibc-2.3.6/bin/../lib/gcc/arm-linux/3.4.5/libgcc.a(_cmpdf2.oS)
 .debug_aranges
                0x00000130       0x20 /home/zion/gcc_jz2440/arm-linux-gcc-3.4.5-glibc-2.3.6/bin/../lib/gcc/arm-linux/3.4.5/libgcc.a(_fixdfsi.oS)
 .debug_aranges
                0x00000150       0x20 /home/zion/gcc_jz2440/arm-linux-gcc-3.4.5-glibc-2.3.6/bin/../lib/gcc/arm-linux/3.4.5/libgcc.a(_fixunsdfsi.oS)
 .debug_aranges
                0x00000170       0x20 /home/zion/gcc_jz2440/arm-linux-gcc-3.4.5-glibc-2.3.6/bin/../lib/gcc/arm-linux/3.4.5/libgcc.a(_addsubsf3.oS)
 .debug_aranges
                0x00000190       0x20 /home/zion/gcc_jz2440/arm-linux-gcc-3.4.5-glibc-2.3.6/bin/../lib/gcc/arm-linux/3.4.5/libgcc.a(_muldivsf3.oS)
 .debug_aranges
                0x000001b0       0x28 /home/zion/gcc_jz2440/arm-linux-gcc-3.4.5-glibc-2.3.6/bin/../lib/gcc/arm-linux/3.4.5/../../../../arm-linux/lib/crtn.o

.debug_pubnames
 *(.debug_pubnames)

.debug_info     0x00000000      0xddb
 *(.debug_info .gnu.linkonce.wi.*)
 .debug_info    0x00000000       0xeb /home/zion/gcc_jz2440/arm-linux-gcc-3.4.5-glibc-2.3.6/bin/../lib/gcc/arm-linux/3.4.5/../../../../arm-linux/lib/crti.o
 .debug_info    0x000000eb      0x101 /home/zion/gcc_jz2440/arm-linux-gcc-3.4.5-glibc-2.3.6/bin/../lib/gcc/arm-linux/3.4.5/libgcc.a(_udivsi3.oS)
 .debug_info    0x000001ec      0x101 /home/zion/gcc_jz2440/arm-linux-gcc-3.4.5-glibc-2.3.6/bin/../lib/gcc/arm-linux/3.4.5/libgcc.a(_divsi3.oS)
 .debug_info    0x000002ed      0x101 /home/zion/gcc_jz2440/arm-linux-gcc-3.4.5-glibc-2.3.6/bin/../lib/gcc/arm-linux/3.4.5/libgcc.a(_umodsi3.oS)
 .debug_info    0x000003ee      0x101 /home/zion/gcc_jz2440/arm-linux-gcc-3.4.5-glibc-2.3.6/bin/../lib/gcc/arm-linux/3.4.5/libgcc.a(_modsi3.oS)
 .debug_info    0x000004ef      0x101 /home/zion/gcc_jz2440/arm-linux-gcc-3.4.5-glibc-2.3.6/bin/../lib/gcc/arm-linux/3.4.5/libgcc.a(_dvmd_lnx.oS)
 .debug_info    0x000005f0      0x100 /home/zion/gcc_jz2440/arm-linux-gcc-3.4.5-glibc-2.3.6/bin/../lib/gcc/arm-linux/3.4.5/libgcc.a(_addsubdf3.oS)
 .debug_info    0x000006f0      0x100 /home/zion/gcc_jz2440/arm-linux-gcc-3.4.5-glibc-2.3.6/bin/../lib/gcc/arm-linux/3.4.5/libgcc.a(_muldivdf3.oS)
 .debug_info    0x000007f0      0x100 /home/zion/gcc_jz2440/arm-linux-gcc-3.4.5-glibc-2.3.6/bin/../lib/gcc/arm-linux/3.4.5/libgcc.a(_cmpdf2.oS)
 .debug_info    0x000008f0      0x100 /home/zion/gcc_jz2440/arm-linux-gcc-3.4.5-glibc-2.3.6/bin/../lib/gcc/arm-linux/3.4.5/libgcc.a(_fixdfsi.oS)
 .debug_info    0x000009f0      0x100 /home/zion/gcc_jz2440/arm-linux-gcc-3.4.5-glibc-2.3.6/bin/../lib/gcc/arm-linux/3.4.5/libgcc.a(_fixunsdfsi.oS)
 .debug_info    0x00000af0      0x100 /home/zion/gcc_jz2440/arm-linux-gcc-3.4.5-glibc-2.3.6/bin/../lib/gcc/arm-linux/3.4.5/libgcc.a(_addsubsf3.oS)
 .debug_info    0x00000bf0      0x100 /home/zion/gcc_jz2440/arm-linux-gcc-3.4.5-glibc-2.3.6/bin/../lib/gcc/arm-linux/3.4.5/libgcc.a(_muldivsf3.oS)
 .debug_info    0x00000cf0       0xeb /home/zion/gcc_jz2440/arm-linux-gcc-3.4.5-glibc-2.3.6/bin/../lib/gcc/arm-linux/3.4.5/../../../../arm-linux/lib/crtn.o

.debug_abbrev   0x00000000      0x110
 *(.debug_abbrev)
 .debug_abbrev  0x00000000       0x10 /home/zion/gcc_jz2440/arm-linux-gcc-3.4.5-glibc-2.3.6/bin/../lib/gcc/arm-linux/3.4.5/../../../../arm-linux/lib/crti.o
 .debug_abbrev  0x00000010       0x14 /home/zion/gcc_jz2440/arm-linux-gcc-3.4.5-glibc-2.3.6/bin/../lib/gcc/arm-linux/3.4.5/libgcc.a(_udivsi3.oS)
 .debug_abbrev  0x00000024       0x14 /home/zion/gcc_jz2440/arm-linux-gcc-3.4.5-glibc-2.3.6/bin/../lib/gcc/arm-linux/3.4.5/libgcc.a(_divsi3.oS)
 .debug_abbrev  0x00000038       0x14 /home/zion/gcc_jz2440/arm-linux-gcc-3.4.5-glibc-2.3.6/bin/../lib/gcc/arm-linux/3.4.5/libgcc.a(_umodsi3.oS)
 .debug_abbrev  0x0000004c       0x14 /home/zion/gcc_jz2440/arm-linux-gcc-3.4.5-glibc-2.3.6/bin/../lib/gcc/arm-linux/3.4.5/libgcc.a(_modsi3.oS)
 .debug_abbrev  0x00000060       0x14 /home/zion/gcc_jz2440/arm-linux-gcc-3.4.5-glibc-2.3.6/bin/../lib/gcc/arm-linux/3.4.5/libgcc.a(_dvmd_lnx.oS)
 .debug_abbrev  0x00000074       0x14 /home/zion/gcc_jz2440/arm-linux-gcc-3.4.5-glibc-2.3.6/bin/../lib/gcc/arm-linux/3.4.5/libgcc.a(_addsubdf3.oS)
 .debug_abbrev  0x00000088       0x14 /home/zion/gcc_jz2440/arm-linux-gcc-3.4.5-glibc-2.3.6/bin/../lib/gcc/arm-linux/3.4.5/libgcc.a(_muldivdf3.oS)
 .debug_abbrev  0x0000009c       0x14 /home/zion/gcc_jz2440/arm-linux-gcc-3.4.5-glibc-2.3.6/bin/../lib/gcc/arm-linux/3.4.5/libgcc.a(_cmpdf2.oS)
 .debug_abbrev  0x000000b0       0x14 /home/zion/gcc_jz2440/arm-linux-gcc-3.4.5-glibc-2.3.6/bin/../lib/gcc/arm-linux/3.4.5/libgcc.a(_fixdfsi.oS)
 .debug_abbrev  0x000000c4       0x14 /home/zion/gcc_jz2440/arm-linux-gcc-3.4.5-glibc-2.3.6/bin/../lib/gcc/arm-linux/3.4.5/libgcc.a(_fixunsdfsi.oS)
 .debug_abbrev  0x000000d8       0x14 /home/zion/gcc_jz2440/arm-linux-gcc-3.4.5-glibc-2.3.6/bin/../lib/gcc/arm-linux/3.4.5/libgcc.a(_addsubsf3.oS)
 .debug_abbrev  0x000000ec       0x14 /home/zion/gcc_jz2440/arm-linux-gcc-3.4.5-glibc-2.3.6/bin/../lib/gcc/arm-linux/3.4.5/libgcc.a(_muldivsf3.oS)
 .debug_abbrev  0x00000100       0x10 /home/zion/gcc_jz2440/arm-linux-gcc-3.4.5-glibc-2.3.6/bin/../lib/gcc/arm-linux/3.4.5/../../../../arm-linux/lib/crtn.o

.debug_line     0x00000000     0x1120
 *(.debug_line)
 .debug_line    0x00000000       0xbe /home/zion/gcc_jz2440/arm-linux-gcc-3.4.5-glibc-2.3.6/bin/../lib/gcc/arm-linux/3.4.5/../../../../arm-linux/lib/crti.o
 .debug_line    0x000000be       0xe4 /home/zion/gcc_jz2440/arm-linux-gcc-3.4.5-glibc-2.3.6/bin/../lib/gcc/arm-linux/3.4.5/libgcc.a(_udivsi3.oS)
 .debug_line    0x000001a2       0xf0 /home/zion/gcc_jz2440/arm-linux-gcc-3.4.5-glibc-2.3.6/bin/../lib/gcc/arm-linux/3.4.5/libgcc.a(_divsi3.oS)
 .debug_line    0x00000292       0xd6 /home/zion/gcc_jz2440/arm-linux-gcc-3.4.5-glibc-2.3.6/bin/../lib/gcc/arm-linux/3.4.5/libgcc.a(_umodsi3.oS)
 .debug_line    0x00000368       0xdc /home/zion/gcc_jz2440/arm-linux-gcc-3.4.5-glibc-2.3.6/bin/../lib/gcc/arm-linux/3.4.5/libgcc.a(_modsi3.oS)
 .debug_line    0x00000444       0xd0 /home/zion/gcc_jz2440/arm-linux-gcc-3.4.5-glibc-2.3.6/bin/../lib/gcc/arm-linux/3.4.5/libgcc.a(_dvmd_lnx.oS)
 .debug_line    0x00000514      0x1fe /home/zion/gcc_jz2440/arm-linux-gcc-3.4.5-glibc-2.3.6/bin/../lib/gcc/arm-linux/3.4.5/libgcc.a(_addsubdf3.oS)
 .debug_line    0x00000712      0x296 /home/zion/gcc_jz2440/arm-linux-gcc-3.4.5-glibc-2.3.6/bin/../lib/gcc/arm-linux/3.4.5/libgcc.a(_muldivdf3.oS)
 .debug_line    0x000009a8      0x11c /home/zion/gcc_jz2440/arm-linux-gcc-3.4.5-glibc-2.3.6/bin/../lib/gcc/arm-linux/3.4.5/libgcc.a(_cmpdf2.oS)
 .debug_line    0x00000ac4       0xdf /home/zion/gcc_jz2440/arm-linux-gcc-3.4.5-glibc-2.3.6/bin/../lib/gcc/arm-linux/3.4.5/libgcc.a(_fixdfsi.oS)
 .debug_line    0x00000ba3       0xdc /home/zion/gcc_jz2440/arm-linux-gcc-3.4.5-glibc-2.3.6/bin/../lib/gcc/arm-linux/3.4.5/libgcc.a(_fixunsdfsi.oS)
 .debug_line    0x00000c7f      0x148 /home/zion/gcc_jz2440/arm-linux-gcc-3.4.5-glibc-2.3.6/bin/../lib/gcc/arm-linux/3.4.5/libgcc.a(_addsubsf3.oS)
 .debug_line    0x00000dc7      0x198 /home/zion/gcc_jz2440/arm-linux-gcc-3.4.5-glibc-2.3.6/bin/../lib/gcc/arm-linux/3.4.5/libgcc.a(_muldivsf3.oS)
 .debug_line    0x00000f5f       0x1a /home/zion/gcc_jz2440/arm-linux-gcc-3.4.5-glibc-2.3.6/bin/../lib/gcc/arm-linux/3.4.5/libgcc.a(_muldi3.oS)
 .debug_line    0x00000f79       0x1a /home/zion/gcc_jz2440/arm-linux-gcc-3.4.5-glibc-2.3.6/bin/../lib/gcc/arm-linux/3.4.5/libgcc.a(_lshrdi3.oS)
 .debug_line    0x00000f93       0x1a /home/zion/gcc_jz2440/arm-linux-gcc-3.4.5-glibc-2.3.6/bin/../lib/gcc/arm-linux/3.4.5/libgcc.a(_ashldi3.oS)
 .debug_line    0x00000fad       0x1a /home/zion/gcc_jz2440/arm-linux-gcc-3.4.5-glibc-2.3.6/bin/../lib/gcc/arm-linux/3.4.5/libgcc.a(_ashrdi3.oS)
 .debug_line    0x00000fc7       0x1a /home/zion/gcc_jz2440/arm-linux-gcc-3.4.5-glibc-2.3.6/bin/../lib/gcc/arm-linux/3.4.5/libgcc.a(_cmpdi2.oS)
 .debug_line    0x00000fe1       0x1a /home/zion/gcc_jz2440/arm-linux-gcc-3.4.5-glibc-2.3.6/bin/../lib/gcc/arm-linux/3.4.5/libgcc.a(_floatdidf.oS)
 .debug_line    0x00000ffb       0x1a /home/zion/gcc_jz2440/arm-linux-gcc-3.4.5-glibc-2.3.6/bin/../lib/gcc/arm-linux/3.4.5/libgcc.a(_divdi3.oS)
 .debug_line    0x00001015       0x1a /home/zion/gcc_jz2440/arm-linux-gcc-3.4.5-glibc-2.3.6/bin/../lib/gcc/arm-linux/3.4.5/libgcc.a(_moddi3.oS)
 .debug_line    0x0000102f       0x1a /home/zion/gcc_jz2440/arm-linux-gcc-3.4.5-glibc-2.3.6/bin/../lib/gcc/arm-linux/3.4.5/libgcc.a(_udivdi3.oS)
 .debug_line    0x00001049       0x1a /home/zion/gcc_jz2440/arm-linux-gcc-3.4.5-glibc-2.3.6/bin/../lib/gcc/arm-linux/3.4.5/libgcc.a(_umoddi3.oS)
 .debug_line    0x00001063       0x1a /home/zion/gcc_jz2440/arm-linux-gcc-3.4.5-glibc-2.3.6/bin/../lib/gcc/arm-linux/3.4.5/libgcc.a(_clz.oS)
 .debug_line    0x0000107d       0xa3 /home/zion/gcc_jz2440/arm-linux-gcc-3.4.5-glibc-2.3.6/bin/../lib/gcc/arm-linux/3.4.5/../../../../arm-linux/lib/crtn.o

.debug_frame
 *(.debug_frame)

.debug_str
 *(.debug_str)

.debug_loc
 *(.debug_loc)

.debug_macinfo
 *(.debug_macinfo)

.debug_weaknames
 *(.debug_weaknames)

.debug_funcnames
 *(.debug_funcnames)

.debug_typenames
 *(.debug_typenames)

.debug_varnames
 *(.debug_varnames)

.note.gnu.arm.ident
 *(.note.gnu.arm.ident)

/DISCARD/
 *(.note.GNU-stack)
OUTPUT(busybox_unstripped elf32-littlearm)
